
rtarget:     file format elf64-x86-64


Disassembly of section .init:

0000000000400bb0 <_init>:
  400bb0:	48 83 ec 08          	sub    $0x8,%rsp
  400bb4:	48 8b 05 3d 44 20 00 	mov    0x20443d(%rip),%rax        # 604ff8 <__gmon_start__>
  400bbb:	48 85 c0             	test   %rax,%rax
  400bbe:	74 05                	je     400bc5 <_init+0x15>
  400bc0:	e8 2b 02 00 00       	callq  400df0 <.plt.got>
  400bc5:	48 83 c4 08          	add    $0x8,%rsp
  400bc9:	c3                   	retq   

Disassembly of section .plt:

0000000000400bd0 <.plt>:
  400bd0:	ff 35 32 44 20 00    	pushq  0x204432(%rip)        # 605008 <_GLOBAL_OFFSET_TABLE_+0x8>
  400bd6:	ff 25 34 44 20 00    	jmpq   *0x204434(%rip)        # 605010 <_GLOBAL_OFFSET_TABLE_+0x10>
  400bdc:	0f 1f 40 00          	nopl   0x0(%rax)

0000000000400be0 <strcasecmp@plt>:
  400be0:	ff 25 32 44 20 00    	jmpq   *0x204432(%rip)        # 605018 <strcasecmp@GLIBC_2.2.5>
  400be6:	68 00 00 00 00       	pushq  $0x0
  400beb:	e9 e0 ff ff ff       	jmpq   400bd0 <.plt>

0000000000400bf0 <__errno_location@plt>:
  400bf0:	ff 25 2a 44 20 00    	jmpq   *0x20442a(%rip)        # 605020 <__errno_location@GLIBC_2.2.5>
  400bf6:	68 01 00 00 00       	pushq  $0x1
  400bfb:	e9 d0 ff ff ff       	jmpq   400bd0 <.plt>

0000000000400c00 <srandom@plt>:
  400c00:	ff 25 22 44 20 00    	jmpq   *0x204422(%rip)        # 605028 <srandom@GLIBC_2.2.5>
  400c06:	68 02 00 00 00       	pushq  $0x2
  400c0b:	e9 c0 ff ff ff       	jmpq   400bd0 <.plt>

0000000000400c10 <strncmp@plt>:
  400c10:	ff 25 1a 44 20 00    	jmpq   *0x20441a(%rip)        # 605030 <strncmp@GLIBC_2.2.5>
  400c16:	68 03 00 00 00       	pushq  $0x3
  400c1b:	e9 b0 ff ff ff       	jmpq   400bd0 <.plt>

0000000000400c20 <strcpy@plt>:
  400c20:	ff 25 12 44 20 00    	jmpq   *0x204412(%rip)        # 605038 <strcpy@GLIBC_2.2.5>
  400c26:	68 04 00 00 00       	pushq  $0x4
  400c2b:	e9 a0 ff ff ff       	jmpq   400bd0 <.plt>

0000000000400c30 <puts@plt>:
  400c30:	ff 25 0a 44 20 00    	jmpq   *0x20440a(%rip)        # 605040 <puts@GLIBC_2.2.5>
  400c36:	68 05 00 00 00       	pushq  $0x5
  400c3b:	e9 90 ff ff ff       	jmpq   400bd0 <.plt>

0000000000400c40 <write@plt>:
  400c40:	ff 25 02 44 20 00    	jmpq   *0x204402(%rip)        # 605048 <write@GLIBC_2.2.5>
  400c46:	68 06 00 00 00       	pushq  $0x6
  400c4b:	e9 80 ff ff ff       	jmpq   400bd0 <.plt>

0000000000400c50 <mmap@plt>:
  400c50:	ff 25 fa 43 20 00    	jmpq   *0x2043fa(%rip)        # 605050 <mmap@GLIBC_2.2.5>
  400c56:	68 07 00 00 00       	pushq  $0x7
  400c5b:	e9 70 ff ff ff       	jmpq   400bd0 <.plt>

0000000000400c60 <printf@plt>:
  400c60:	ff 25 f2 43 20 00    	jmpq   *0x2043f2(%rip)        # 605058 <printf@GLIBC_2.2.5>
  400c66:	68 08 00 00 00       	pushq  $0x8
  400c6b:	e9 60 ff ff ff       	jmpq   400bd0 <.plt>

0000000000400c70 <memset@plt>:
  400c70:	ff 25 ea 43 20 00    	jmpq   *0x2043ea(%rip)        # 605060 <memset@GLIBC_2.2.5>
  400c76:	68 09 00 00 00       	pushq  $0x9
  400c7b:	e9 50 ff ff ff       	jmpq   400bd0 <.plt>

0000000000400c80 <alarm@plt>:
  400c80:	ff 25 e2 43 20 00    	jmpq   *0x2043e2(%rip)        # 605068 <alarm@GLIBC_2.2.5>
  400c86:	68 0a 00 00 00       	pushq  $0xa
  400c8b:	e9 40 ff ff ff       	jmpq   400bd0 <.plt>

0000000000400c90 <close@plt>:
  400c90:	ff 25 da 43 20 00    	jmpq   *0x2043da(%rip)        # 605070 <close@GLIBC_2.2.5>
  400c96:	68 0b 00 00 00       	pushq  $0xb
  400c9b:	e9 30 ff ff ff       	jmpq   400bd0 <.plt>

0000000000400ca0 <read@plt>:
  400ca0:	ff 25 d2 43 20 00    	jmpq   *0x2043d2(%rip)        # 605078 <read@GLIBC_2.2.5>
  400ca6:	68 0c 00 00 00       	pushq  $0xc
  400cab:	e9 20 ff ff ff       	jmpq   400bd0 <.plt>

0000000000400cb0 <__libc_start_main@plt>:
  400cb0:	ff 25 ca 43 20 00    	jmpq   *0x2043ca(%rip)        # 605080 <__libc_start_main@GLIBC_2.2.5>
  400cb6:	68 0d 00 00 00       	pushq  $0xd
  400cbb:	e9 10 ff ff ff       	jmpq   400bd0 <.plt>

0000000000400cc0 <signal@plt>:
  400cc0:	ff 25 c2 43 20 00    	jmpq   *0x2043c2(%rip)        # 605088 <signal@GLIBC_2.2.5>
  400cc6:	68 0e 00 00 00       	pushq  $0xe
  400ccb:	e9 00 ff ff ff       	jmpq   400bd0 <.plt>

0000000000400cd0 <gethostbyname@plt>:
  400cd0:	ff 25 ba 43 20 00    	jmpq   *0x2043ba(%rip)        # 605090 <gethostbyname@GLIBC_2.2.5>
  400cd6:	68 0f 00 00 00       	pushq  $0xf
  400cdb:	e9 f0 fe ff ff       	jmpq   400bd0 <.plt>

0000000000400ce0 <fprintf@plt>:
  400ce0:	ff 25 b2 43 20 00    	jmpq   *0x2043b2(%rip)        # 605098 <fprintf@GLIBC_2.2.5>
  400ce6:	68 10 00 00 00       	pushq  $0x10
  400ceb:	e9 e0 fe ff ff       	jmpq   400bd0 <.plt>

0000000000400cf0 <strtol@plt>:
  400cf0:	ff 25 aa 43 20 00    	jmpq   *0x2043aa(%rip)        # 6050a0 <strtol@GLIBC_2.2.5>
  400cf6:	68 11 00 00 00       	pushq  $0x11
  400cfb:	e9 d0 fe ff ff       	jmpq   400bd0 <.plt>

0000000000400d00 <memcpy@plt>:
  400d00:	ff 25 a2 43 20 00    	jmpq   *0x2043a2(%rip)        # 6050a8 <memcpy@GLIBC_2.14>
  400d06:	68 12 00 00 00       	pushq  $0x12
  400d0b:	e9 c0 fe ff ff       	jmpq   400bd0 <.plt>

0000000000400d10 <time@plt>:
  400d10:	ff 25 9a 43 20 00    	jmpq   *0x20439a(%rip)        # 6050b0 <time@GLIBC_2.2.5>
  400d16:	68 13 00 00 00       	pushq  $0x13
  400d1b:	e9 b0 fe ff ff       	jmpq   400bd0 <.plt>

0000000000400d20 <random@plt>:
  400d20:	ff 25 92 43 20 00    	jmpq   *0x204392(%rip)        # 6050b8 <random@GLIBC_2.2.5>
  400d26:	68 14 00 00 00       	pushq  $0x14
  400d2b:	e9 a0 fe ff ff       	jmpq   400bd0 <.plt>

0000000000400d30 <_IO_getc@plt>:
  400d30:	ff 25 8a 43 20 00    	jmpq   *0x20438a(%rip)        # 6050c0 <_IO_getc@GLIBC_2.2.5>
  400d36:	68 15 00 00 00       	pushq  $0x15
  400d3b:	e9 90 fe ff ff       	jmpq   400bd0 <.plt>

0000000000400d40 <__isoc99_sscanf@plt>:
  400d40:	ff 25 82 43 20 00    	jmpq   *0x204382(%rip)        # 6050c8 <__isoc99_sscanf@GLIBC_2.7>
  400d46:	68 16 00 00 00       	pushq  $0x16
  400d4b:	e9 80 fe ff ff       	jmpq   400bd0 <.plt>

0000000000400d50 <munmap@plt>:
  400d50:	ff 25 7a 43 20 00    	jmpq   *0x20437a(%rip)        # 6050d0 <munmap@GLIBC_2.2.5>
  400d56:	68 17 00 00 00       	pushq  $0x17
  400d5b:	e9 70 fe ff ff       	jmpq   400bd0 <.plt>

0000000000400d60 <bcopy@plt>:
  400d60:	ff 25 72 43 20 00    	jmpq   *0x204372(%rip)        # 6050d8 <bcopy@GLIBC_2.2.5>
  400d66:	68 18 00 00 00       	pushq  $0x18
  400d6b:	e9 60 fe ff ff       	jmpq   400bd0 <.plt>

0000000000400d70 <fopen@plt>:
  400d70:	ff 25 6a 43 20 00    	jmpq   *0x20436a(%rip)        # 6050e0 <fopen@GLIBC_2.2.5>
  400d76:	68 19 00 00 00       	pushq  $0x19
  400d7b:	e9 50 fe ff ff       	jmpq   400bd0 <.plt>

0000000000400d80 <getopt@plt>:
  400d80:	ff 25 62 43 20 00    	jmpq   *0x204362(%rip)        # 6050e8 <getopt@GLIBC_2.2.5>
  400d86:	68 1a 00 00 00       	pushq  $0x1a
  400d8b:	e9 40 fe ff ff       	jmpq   400bd0 <.plt>

0000000000400d90 <strtoul@plt>:
  400d90:	ff 25 5a 43 20 00    	jmpq   *0x20435a(%rip)        # 6050f0 <strtoul@GLIBC_2.2.5>
  400d96:	68 1b 00 00 00       	pushq  $0x1b
  400d9b:	e9 30 fe ff ff       	jmpq   400bd0 <.plt>

0000000000400da0 <gethostname@plt>:
  400da0:	ff 25 52 43 20 00    	jmpq   *0x204352(%rip)        # 6050f8 <gethostname@GLIBC_2.2.5>
  400da6:	68 1c 00 00 00       	pushq  $0x1c
  400dab:	e9 20 fe ff ff       	jmpq   400bd0 <.plt>

0000000000400db0 <sprintf@plt>:
  400db0:	ff 25 4a 43 20 00    	jmpq   *0x20434a(%rip)        # 605100 <sprintf@GLIBC_2.2.5>
  400db6:	68 1d 00 00 00       	pushq  $0x1d
  400dbb:	e9 10 fe ff ff       	jmpq   400bd0 <.plt>

0000000000400dc0 <exit@plt>:
  400dc0:	ff 25 42 43 20 00    	jmpq   *0x204342(%rip)        # 605108 <exit@GLIBC_2.2.5>
  400dc6:	68 1e 00 00 00       	pushq  $0x1e
  400dcb:	e9 00 fe ff ff       	jmpq   400bd0 <.plt>

0000000000400dd0 <connect@plt>:
  400dd0:	ff 25 3a 43 20 00    	jmpq   *0x20433a(%rip)        # 605110 <connect@GLIBC_2.2.5>
  400dd6:	68 1f 00 00 00       	pushq  $0x1f
  400ddb:	e9 f0 fd ff ff       	jmpq   400bd0 <.plt>

0000000000400de0 <socket@plt>:
  400de0:	ff 25 32 43 20 00    	jmpq   *0x204332(%rip)        # 605118 <socket@GLIBC_2.2.5>
  400de6:	68 20 00 00 00       	pushq  $0x20
  400deb:	e9 e0 fd ff ff       	jmpq   400bd0 <.plt>

Disassembly of section .plt.got:

0000000000400df0 <.plt.got>:
  400df0:	ff 25 02 42 20 00    	jmpq   *0x204202(%rip)        # 604ff8 <__gmon_start__>
  400df6:	66 90                	xchg   %ax,%ax

Disassembly of section .text:

0000000000400e00 <_start>:
  400e00:	31 ed                	xor    %ebp,%ebp
  400e02:	49 89 d1             	mov    %rdx,%r9
  400e05:	5e                   	pop    %rsi
  400e06:	48 89 e2             	mov    %rsp,%rdx
  400e09:	48 83 e4 f0          	and    $0xfffffffffffffff0,%rsp
  400e0d:	50                   	push   %rax
  400e0e:	54                   	push   %rsp
  400e0f:	49 c7 c0 50 2c 40 00 	mov    $0x402c50,%r8
  400e16:	48 c7 c1 e0 2b 40 00 	mov    $0x402be0,%rcx
  400e1d:	48 c7 c7 c0 10 40 00 	mov    $0x4010c0,%rdi
  400e24:	e8 87 fe ff ff       	callq  400cb0 <__libc_start_main@plt>
  400e29:	f4                   	hlt    
  400e2a:	66 0f 1f 44 00 00    	nopw   0x0(%rax,%rax,1)

0000000000400e30 <deregister_tm_clones>:
  400e30:	b8 97 54 60 00       	mov    $0x605497,%eax
  400e35:	55                   	push   %rbp
  400e36:	48 2d 90 54 60 00    	sub    $0x605490,%rax
  400e3c:	48 83 f8 0e          	cmp    $0xe,%rax
  400e40:	48 89 e5             	mov    %rsp,%rbp
  400e43:	77 02                	ja     400e47 <deregister_tm_clones+0x17>
  400e45:	5d                   	pop    %rbp
  400e46:	c3                   	retq   
  400e47:	b8 00 00 00 00       	mov    $0x0,%eax
  400e4c:	48 85 c0             	test   %rax,%rax
  400e4f:	74 f4                	je     400e45 <deregister_tm_clones+0x15>
  400e51:	5d                   	pop    %rbp
  400e52:	bf 90 54 60 00       	mov    $0x605490,%edi
  400e57:	ff e0                	jmpq   *%rax
  400e59:	0f 1f 80 00 00 00 00 	nopl   0x0(%rax)

0000000000400e60 <register_tm_clones>:
  400e60:	b8 90 54 60 00       	mov    $0x605490,%eax
  400e65:	55                   	push   %rbp
  400e66:	48 2d 90 54 60 00    	sub    $0x605490,%rax
  400e6c:	48 c1 f8 03          	sar    $0x3,%rax
  400e70:	48 89 e5             	mov    %rsp,%rbp
  400e73:	48 89 c2             	mov    %rax,%rdx
  400e76:	48 c1 ea 3f          	shr    $0x3f,%rdx
  400e7a:	48 01 d0             	add    %rdx,%rax
  400e7d:	48 d1 f8             	sar    %rax
  400e80:	75 02                	jne    400e84 <register_tm_clones+0x24>
  400e82:	5d                   	pop    %rbp
  400e83:	c3                   	retq   
  400e84:	ba 00 00 00 00       	mov    $0x0,%edx
  400e89:	48 85 d2             	test   %rdx,%rdx
  400e8c:	74 f4                	je     400e82 <register_tm_clones+0x22>
  400e8e:	5d                   	pop    %rbp
  400e8f:	48 89 c6             	mov    %rax,%rsi
  400e92:	bf 90 54 60 00       	mov    $0x605490,%edi
  400e97:	ff e2                	jmpq   *%rdx
  400e99:	0f 1f 80 00 00 00 00 	nopl   0x0(%rax)

0000000000400ea0 <__do_global_dtors_aux>:
  400ea0:	80 3d 11 46 20 00 00 	cmpb   $0x0,0x204611(%rip)        # 6054b8 <completed.6355>
  400ea7:	75 11                	jne    400eba <__do_global_dtors_aux+0x1a>
  400ea9:	55                   	push   %rbp
  400eaa:	48 89 e5             	mov    %rsp,%rbp
  400ead:	e8 7e ff ff ff       	callq  400e30 <deregister_tm_clones>
  400eb2:	5d                   	pop    %rbp
  400eb3:	c6 05 fe 45 20 00 01 	movb   $0x1,0x2045fe(%rip)        # 6054b8 <completed.6355>
  400eba:	f3 c3                	repz retq 
  400ebc:	0f 1f 40 00          	nopl   0x0(%rax)

0000000000400ec0 <frame_dummy>:
  400ec0:	48 83 3d 58 3f 20 00 	cmpq   $0x0,0x203f58(%rip)        # 604e20 <__JCR_END__>
  400ec7:	00 
  400ec8:	74 1e                	je     400ee8 <frame_dummy+0x28>
  400eca:	b8 00 00 00 00       	mov    $0x0,%eax
  400ecf:	48 85 c0             	test   %rax,%rax
  400ed2:	74 14                	je     400ee8 <frame_dummy+0x28>
  400ed4:	55                   	push   %rbp
  400ed5:	bf 20 4e 60 00       	mov    $0x604e20,%edi
  400eda:	48 89 e5             	mov    %rsp,%rbp
  400edd:	ff d0                	callq  *%rax
  400edf:	5d                   	pop    %rbp
  400ee0:	e9 7b ff ff ff       	jmpq   400e60 <register_tm_clones>
  400ee5:	0f 1f 00             	nopl   (%rax)
  400ee8:	e9 73 ff ff ff       	jmpq   400e60 <register_tm_clones>
  400eed:	0f 1f 00             	nopl   (%rax)

0000000000400ef0 <usage>:
  400ef0:	48 83 ec 08          	sub    $0x8,%rsp
  400ef4:	48 89 fe             	mov    %rdi,%rsi
  400ef7:	83 3d ea 45 20 00 00 	cmpl   $0x0,0x2045ea(%rip)        # 6054e8 <is_checker>
  400efe:	74 39                	je     400f39 <usage+0x49>
  400f00:	bf 70 2c 40 00       	mov    $0x402c70,%edi
  400f05:	b8 00 00 00 00       	mov    $0x0,%eax
  400f0a:	e8 51 fd ff ff       	callq  400c60 <printf@plt>
  400f0f:	bf a8 2c 40 00       	mov    $0x402ca8,%edi
  400f14:	e8 17 fd ff ff       	callq  400c30 <puts@plt>
  400f19:	bf 20 2e 40 00       	mov    $0x402e20,%edi
  400f1e:	e8 0d fd ff ff       	callq  400c30 <puts@plt>
  400f23:	bf d0 2c 40 00       	mov    $0x402cd0,%edi
  400f28:	e8 03 fd ff ff       	callq  400c30 <puts@plt>
  400f2d:	bf 3a 2e 40 00       	mov    $0x402e3a,%edi
  400f32:	e8 f9 fc ff ff       	callq  400c30 <puts@plt>
  400f37:	eb 2d                	jmp    400f66 <usage+0x76>
  400f39:	bf 56 2e 40 00       	mov    $0x402e56,%edi
  400f3e:	b8 00 00 00 00       	mov    $0x0,%eax
  400f43:	e8 18 fd ff ff       	callq  400c60 <printf@plt>
  400f48:	bf f8 2c 40 00       	mov    $0x402cf8,%edi
  400f4d:	e8 de fc ff ff       	callq  400c30 <puts@plt>
  400f52:	bf 20 2d 40 00       	mov    $0x402d20,%edi
  400f57:	e8 d4 fc ff ff       	callq  400c30 <puts@plt>
  400f5c:	bf 74 2e 40 00       	mov    $0x402e74,%edi
  400f61:	e8 ca fc ff ff       	callq  400c30 <puts@plt>
  400f66:	bf 00 00 00 00       	mov    $0x0,%edi
  400f6b:	e8 50 fe ff ff       	callq  400dc0 <exit@plt>

0000000000400f70 <initialize_target>:
  400f70:	55                   	push   %rbp
  400f71:	53                   	push   %rbx
  400f72:	48 81 ec 08 21 00 00 	sub    $0x2108,%rsp
  400f79:	89 f5                	mov    %esi,%ebp
  400f7b:	89 3d 57 45 20 00    	mov    %edi,0x204557(%rip)        # 6054d8 <check_level>
  400f81:	8b 3d c1 41 20 00    	mov    0x2041c1(%rip),%edi        # 605148 <target_id>
  400f87:	e8 27 1c 00 00       	callq  402bb3 <gencookie>
  400f8c:	89 05 52 45 20 00    	mov    %eax,0x204552(%rip)        # 6054e4 <cookie>
  400f92:	89 c7                	mov    %eax,%edi
  400f94:	e8 1a 1c 00 00       	callq  402bb3 <gencookie>
  400f99:	89 05 41 45 20 00    	mov    %eax,0x204541(%rip)        # 6054e0 <authkey>
  400f9f:	8b 05 a3 41 20 00    	mov    0x2041a3(%rip),%eax        # 605148 <target_id>
  400fa5:	8d 78 01             	lea    0x1(%rax),%edi
  400fa8:	e8 53 fc ff ff       	callq  400c00 <srandom@plt>
  400fad:	e8 6e fd ff ff       	callq  400d20 <random@plt>
  400fb2:	89 c7                	mov    %eax,%edi
  400fb4:	e8 ca 02 00 00       	callq  401283 <scramble>
  400fb9:	89 c3                	mov    %eax,%ebx
  400fbb:	85 ed                	test   %ebp,%ebp
  400fbd:	74 18                	je     400fd7 <initialize_target+0x67>
  400fbf:	bf 00 00 00 00       	mov    $0x0,%edi
  400fc4:	e8 47 fd ff ff       	callq  400d10 <time@plt>
  400fc9:	89 c7                	mov    %eax,%edi
  400fcb:	e8 30 fc ff ff       	callq  400c00 <srandom@plt>
  400fd0:	e8 4b fd ff ff       	callq  400d20 <random@plt>
  400fd5:	eb 05                	jmp    400fdc <initialize_target+0x6c>
  400fd7:	b8 00 00 00 00       	mov    $0x0,%eax
  400fdc:	01 c3                	add    %eax,%ebx
  400fde:	0f b7 db             	movzwl %bx,%ebx
  400fe1:	8d 04 dd 00 01 00 00 	lea    0x100(,%rbx,8),%eax
  400fe8:	89 c0                	mov    %eax,%eax
  400fea:	48 89 05 8f 44 20 00 	mov    %rax,0x20448f(%rip)        # 605480 <buf_offset>
  400ff1:	c6 05 10 51 20 00 72 	movb   $0x72,0x205110(%rip)        # 606108 <target_prefix>
  400ff8:	83 3d 89 44 20 00 00 	cmpl   $0x0,0x204489(%rip)        # 605488 <notify>
  400fff:	0f 84 b1 00 00 00    	je     4010b6 <initialize_target+0x146>
  401005:	83 3d dc 44 20 00 00 	cmpl   $0x0,0x2044dc(%rip)        # 6054e8 <is_checker>
  40100c:	0f 85 a4 00 00 00    	jne    4010b6 <initialize_target+0x146>
  401012:	be 00 01 00 00       	mov    $0x100,%esi
  401017:	48 89 e7             	mov    %rsp,%rdi
  40101a:	e8 81 fd ff ff       	callq  400da0 <gethostname@plt>
  40101f:	85 c0                	test   %eax,%eax
  401021:	74 25                	je     401048 <initialize_target+0xd8>
  401023:	bf 50 2d 40 00       	mov    $0x402d50,%edi
  401028:	e8 03 fc ff ff       	callq  400c30 <puts@plt>
  40102d:	bf 08 00 00 00       	mov    $0x8,%edi
  401032:	e8 89 fd ff ff       	callq  400dc0 <exit@plt>
  401037:	48 89 e6             	mov    %rsp,%rsi
  40103a:	e8 a1 fb ff ff       	callq  400be0 <strcasecmp@plt>
  40103f:	85 c0                	test   %eax,%eax
  401041:	74 21                	je     401064 <initialize_target+0xf4>
  401043:	83 c3 01             	add    $0x1,%ebx
  401046:	eb 05                	jmp    40104d <initialize_target+0xdd>
  401048:	bb 00 00 00 00       	mov    $0x0,%ebx
  40104d:	48 63 c3             	movslq %ebx,%rax
  401050:	48 8b 3c c5 60 51 60 	mov    0x605160(,%rax,8),%rdi
  401057:	00 
  401058:	48 85 ff             	test   %rdi,%rdi
  40105b:	75 da                	jne    401037 <initialize_target+0xc7>
  40105d:	b8 00 00 00 00       	mov    $0x0,%eax
  401062:	eb 05                	jmp    401069 <initialize_target+0xf9>
  401064:	b8 01 00 00 00       	mov    $0x1,%eax
  401069:	85 c0                	test   %eax,%eax
  40106b:	75 17                	jne    401084 <initialize_target+0x114>
  40106d:	48 89 e6             	mov    %rsp,%rsi
  401070:	bf 88 2d 40 00       	mov    $0x402d88,%edi
  401075:	e8 e6 fb ff ff       	callq  400c60 <printf@plt>
  40107a:	bf 08 00 00 00       	mov    $0x8,%edi
  40107f:	e8 3c fd ff ff       	callq  400dc0 <exit@plt>
  401084:	48 8d bc 24 00 01 00 	lea    0x100(%rsp),%rdi
  40108b:	00 
  40108c:	e8 b9 18 00 00       	callq  40294a <init_driver>
  401091:	85 c0                	test   %eax,%eax
  401093:	79 21                	jns    4010b6 <initialize_target+0x146>
  401095:	48 8d b4 24 00 01 00 	lea    0x100(%rsp),%rsi
  40109c:	00 
  40109d:	bf c8 2d 40 00       	mov    $0x402dc8,%edi
  4010a2:	b8 00 00 00 00       	mov    $0x0,%eax
  4010a7:	e8 b4 fb ff ff       	callq  400c60 <printf@plt>
  4010ac:	bf 08 00 00 00       	mov    $0x8,%edi
  4010b1:	e8 0a fd ff ff       	callq  400dc0 <exit@plt>
  4010b6:	48 81 c4 08 21 00 00 	add    $0x2108,%rsp
  4010bd:	5b                   	pop    %rbx
  4010be:	5d                   	pop    %rbp
  4010bf:	c3                   	retq   

00000000004010c0 <main>:
  4010c0:	41 56                	push   %r14
  4010c2:	41 55                	push   %r13
  4010c4:	41 54                	push   %r12
  4010c6:	55                   	push   %rbp
  4010c7:	53                   	push   %rbx
  4010c8:	41 89 fc             	mov    %edi,%r12d
  4010cb:	48 89 f3             	mov    %rsi,%rbx
  4010ce:	be 71 1d 40 00       	mov    $0x401d71,%esi
  4010d3:	bf 0b 00 00 00       	mov    $0xb,%edi
  4010d8:	e8 e3 fb ff ff       	callq  400cc0 <signal@plt>
  4010dd:	be 23 1d 40 00       	mov    $0x401d23,%esi
  4010e2:	bf 07 00 00 00       	mov    $0x7,%edi
  4010e7:	e8 d4 fb ff ff       	callq  400cc0 <signal@plt>
  4010ec:	be bf 1d 40 00       	mov    $0x401dbf,%esi
  4010f1:	bf 04 00 00 00       	mov    $0x4,%edi
  4010f6:	e8 c5 fb ff ff       	callq  400cc0 <signal@plt>
  4010fb:	83 3d e6 43 20 00 00 	cmpl   $0x0,0x2043e6(%rip)        # 6054e8 <is_checker>
  401102:	74 20                	je     401124 <main+0x64>
  401104:	be 0d 1e 40 00       	mov    $0x401e0d,%esi
  401109:	bf 0e 00 00 00       	mov    $0xe,%edi
  40110e:	e8 ad fb ff ff       	callq  400cc0 <signal@plt>
  401113:	bf 05 00 00 00       	mov    $0x5,%edi
  401118:	e8 63 fb ff ff       	callq  400c80 <alarm@plt>
  40111d:	bd 92 2e 40 00       	mov    $0x402e92,%ebp
  401122:	eb 05                	jmp    401129 <main+0x69>
  401124:	bd 8d 2e 40 00       	mov    $0x402e8d,%ebp
  401129:	48 8b 05 70 43 20 00 	mov    0x204370(%rip),%rax        # 6054a0 <stdin@@GLIBC_2.2.5>
  401130:	48 89 05 99 43 20 00 	mov    %rax,0x204399(%rip)        # 6054d0 <infile>
  401137:	41 bd 00 00 00 00    	mov    $0x0,%r13d
  40113d:	41 be 00 00 00 00    	mov    $0x0,%r14d
  401143:	e9 b9 00 00 00       	jmpq   401201 <main+0x141>
  401148:	83 e8 61             	sub    $0x61,%eax
  40114b:	3c 10                	cmp    $0x10,%al
  40114d:	0f 87 93 00 00 00    	ja     4011e6 <main+0x126>
  401153:	0f b6 c0             	movzbl %al,%eax
  401156:	ff 24 c5 d8 2e 40 00 	jmpq   *0x402ed8(,%rax,8)
  40115d:	48 8b 3b             	mov    (%rbx),%rdi
  401160:	e8 8b fd ff ff       	callq  400ef0 <usage>
  401165:	be 2d 32 40 00       	mov    $0x40322d,%esi
  40116a:	48 8b 3d 37 43 20 00 	mov    0x204337(%rip),%rdi        # 6054a8 <optarg@@GLIBC_2.2.5>
  401171:	e8 fa fb ff ff       	callq  400d70 <fopen@plt>
  401176:	48 89 05 53 43 20 00 	mov    %rax,0x204353(%rip)        # 6054d0 <infile>
  40117d:	48 85 c0             	test   %rax,%rax
  401180:	75 7f                	jne    401201 <main+0x141>
  401182:	48 8b 15 1f 43 20 00 	mov    0x20431f(%rip),%rdx        # 6054a8 <optarg@@GLIBC_2.2.5>
  401189:	be 9a 2e 40 00       	mov    $0x402e9a,%esi
  40118e:	48 8b 3d 1b 43 20 00 	mov    0x20431b(%rip),%rdi        # 6054b0 <stderr@@GLIBC_2.2.5>
  401195:	e8 46 fb ff ff       	callq  400ce0 <fprintf@plt>
  40119a:	b8 01 00 00 00       	mov    $0x1,%eax
  40119f:	e9 d6 00 00 00       	jmpq   40127a <main+0x1ba>
  4011a4:	ba 10 00 00 00       	mov    $0x10,%edx
  4011a9:	be 00 00 00 00       	mov    $0x0,%esi
  4011ae:	48 8b 3d f3 42 20 00 	mov    0x2042f3(%rip),%rdi        # 6054a8 <optarg@@GLIBC_2.2.5>
  4011b5:	e8 d6 fb ff ff       	callq  400d90 <strtoul@plt>
  4011ba:	41 89 c6             	mov    %eax,%r14d
  4011bd:	eb 42                	jmp    401201 <main+0x141>
  4011bf:	ba 0a 00 00 00       	mov    $0xa,%edx
  4011c4:	be 00 00 00 00       	mov    $0x0,%esi
  4011c9:	48 8b 3d d8 42 20 00 	mov    0x2042d8(%rip),%rdi        # 6054a8 <optarg@@GLIBC_2.2.5>
  4011d0:	e8 1b fb ff ff       	callq  400cf0 <strtol@plt>
  4011d5:	41 89 c5             	mov    %eax,%r13d
  4011d8:	eb 27                	jmp    401201 <main+0x141>
  4011da:	c7 05 a4 42 20 00 00 	movl   $0x0,0x2042a4(%rip)        # 605488 <notify>
  4011e1:	00 00 00 
  4011e4:	eb 1b                	jmp    401201 <main+0x141>
  4011e6:	40 0f be f6          	movsbl %sil,%esi
  4011ea:	bf b7 2e 40 00       	mov    $0x402eb7,%edi
  4011ef:	b8 00 00 00 00       	mov    $0x0,%eax
  4011f4:	e8 67 fa ff ff       	callq  400c60 <printf@plt>
  4011f9:	48 8b 3b             	mov    (%rbx),%rdi
  4011fc:	e8 ef fc ff ff       	callq  400ef0 <usage>
  401201:	48 89 ea             	mov    %rbp,%rdx
  401204:	48 89 de             	mov    %rbx,%rsi
  401207:	44 89 e7             	mov    %r12d,%edi
  40120a:	e8 71 fb ff ff       	callq  400d80 <getopt@plt>
  40120f:	89 c6                	mov    %eax,%esi
  401211:	3c ff                	cmp    $0xff,%al
  401213:	0f 85 2f ff ff ff    	jne    401148 <main+0x88>
  401219:	be 01 00 00 00       	mov    $0x1,%esi
  40121e:	44 89 ef             	mov    %r13d,%edi
  401221:	e8 4a fd ff ff       	callq  400f70 <initialize_target>
  401226:	83 3d bb 42 20 00 00 	cmpl   $0x0,0x2042bb(%rip)        # 6054e8 <is_checker>
  40122d:	74 25                	je     401254 <main+0x194>
  40122f:	44 3b 35 aa 42 20 00 	cmp    0x2042aa(%rip),%r14d        # 6054e0 <authkey>
  401236:	74 1c                	je     401254 <main+0x194>
  401238:	44 89 f6             	mov    %r14d,%esi
  40123b:	bf f0 2d 40 00       	mov    $0x402df0,%edi
  401240:	b8 00 00 00 00       	mov    $0x0,%eax
  401245:	e8 16 fa ff ff       	callq  400c60 <printf@plt>
  40124a:	b8 00 00 00 00       	mov    $0x0,%eax
  40124f:	e8 d7 07 00 00       	callq  401a2b <check_fail>
  401254:	8b 35 8a 42 20 00    	mov    0x20428a(%rip),%esi        # 6054e4 <cookie>
  40125a:	bf ca 2e 40 00       	mov    $0x402eca,%edi
  40125f:	b8 00 00 00 00       	mov    $0x0,%eax
  401264:	e8 f7 f9 ff ff       	callq  400c60 <printf@plt>
  401269:	48 8b 3d 10 42 20 00 	mov    0x204210(%rip),%rdi        # 605480 <buf_offset>
  401270:	e8 e6 0b 00 00       	callq  401e5b <launch>
  401275:	b8 00 00 00 00       	mov    $0x0,%eax
  40127a:	5b                   	pop    %rbx
  40127b:	5d                   	pop    %rbp
  40127c:	41 5c                	pop    %r12
  40127e:	41 5d                	pop    %r13
  401280:	41 5e                	pop    %r14
  401282:	c3                   	retq   

0000000000401283 <scramble>:
  401283:	b8 00 00 00 00       	mov    $0x0,%eax
  401288:	eb 11                	jmp    40129b <scramble+0x18>
  40128a:	69 c8 ec e1 00 00    	imul   $0xe1ec,%eax,%ecx
  401290:	01 f9                	add    %edi,%ecx
  401292:	89 c2                	mov    %eax,%edx
  401294:	89 4c 94 d0          	mov    %ecx,-0x30(%rsp,%rdx,4)
  401298:	83 c0 01             	add    $0x1,%eax
  40129b:	83 f8 09             	cmp    $0x9,%eax
  40129e:	76 ea                	jbe    40128a <scramble+0x7>
  4012a0:	8b 44 24 f4          	mov    -0xc(%rsp),%eax
  4012a4:	69 c0 0f 08 00 00    	imul   $0x80f,%eax,%eax
  4012aa:	89 44 24 f4          	mov    %eax,-0xc(%rsp)
  4012ae:	8b 44 24 d0          	mov    -0x30(%rsp),%eax
  4012b2:	69 c0 98 cd 00 00    	imul   $0xcd98,%eax,%eax
  4012b8:	89 44 24 d0          	mov    %eax,-0x30(%rsp)
  4012bc:	8b 44 24 ec          	mov    -0x14(%rsp),%eax
  4012c0:	69 c0 82 24 00 00    	imul   $0x2482,%eax,%eax
  4012c6:	89 44 24 ec          	mov    %eax,-0x14(%rsp)
  4012ca:	8b 44 24 e0          	mov    -0x20(%rsp),%eax
  4012ce:	69 c0 88 6c 00 00    	imul   $0x6c88,%eax,%eax
  4012d4:	89 44 24 e0          	mov    %eax,-0x20(%rsp)
  4012d8:	8b 44 24 dc          	mov    -0x24(%rsp),%eax
  4012dc:	69 c0 4e 02 00 00    	imul   $0x24e,%eax,%eax
  4012e2:	89 44 24 dc          	mov    %eax,-0x24(%rsp)
  4012e6:	8b 44 24 e8          	mov    -0x18(%rsp),%eax
  4012ea:	69 c0 46 3c 00 00    	imul   $0x3c46,%eax,%eax
  4012f0:	89 44 24 e8          	mov    %eax,-0x18(%rsp)
  4012f4:	8b 44 24 d8          	mov    -0x28(%rsp),%eax
  4012f8:	69 c0 89 e6 00 00    	imul   $0xe689,%eax,%eax
  4012fe:	89 44 24 d8          	mov    %eax,-0x28(%rsp)
  401302:	8b 44 24 d8          	mov    -0x28(%rsp),%eax
  401306:	69 c0 69 72 00 00    	imul   $0x7269,%eax,%eax
  40130c:	89 44 24 d8          	mov    %eax,-0x28(%rsp)
  401310:	8b 44 24 f0          	mov    -0x10(%rsp),%eax
  401314:	69 c0 98 51 00 00    	imul   $0x5198,%eax,%eax
  40131a:	89 44 24 f0          	mov    %eax,-0x10(%rsp)
  40131e:	8b 44 24 e0          	mov    -0x20(%rsp),%eax
  401322:	69 c0 9d 35 00 00    	imul   $0x359d,%eax,%eax
  401328:	89 44 24 e0          	mov    %eax,-0x20(%rsp)
  40132c:	8b 44 24 f4          	mov    -0xc(%rsp),%eax
  401330:	69 c0 0e b5 00 00    	imul   $0xb50e,%eax,%eax
  401336:	89 44 24 f4          	mov    %eax,-0xc(%rsp)
  40133a:	8b 44 24 f4          	mov    -0xc(%rsp),%eax
  40133e:	69 c0 ea 47 00 00    	imul   $0x47ea,%eax,%eax
  401344:	89 44 24 f4          	mov    %eax,-0xc(%rsp)
  401348:	8b 44 24 e0          	mov    -0x20(%rsp),%eax
  40134c:	69 c0 15 66 00 00    	imul   $0x6615,%eax,%eax
  401352:	89 44 24 e0          	mov    %eax,-0x20(%rsp)
  401356:	8b 44 24 d8          	mov    -0x28(%rsp),%eax
  40135a:	69 c0 e9 f6 00 00    	imul   $0xf6e9,%eax,%eax
  401360:	89 44 24 d8          	mov    %eax,-0x28(%rsp)
  401364:	8b 44 24 f4          	mov    -0xc(%rsp),%eax
  401368:	69 c0 3f 17 00 00    	imul   $0x173f,%eax,%eax
  40136e:	89 44 24 f4          	mov    %eax,-0xc(%rsp)
  401372:	8b 44 24 ec          	mov    -0x14(%rsp),%eax
  401376:	69 c0 6b 42 00 00    	imul   $0x426b,%eax,%eax
  40137c:	89 44 24 ec          	mov    %eax,-0x14(%rsp)
  401380:	8b 44 24 ec          	mov    -0x14(%rsp),%eax
  401384:	69 c0 32 ec 00 00    	imul   $0xec32,%eax,%eax
  40138a:	89 44 24 ec          	mov    %eax,-0x14(%rsp)
  40138e:	8b 44 24 d8          	mov    -0x28(%rsp),%eax
  401392:	69 c0 59 83 00 00    	imul   $0x8359,%eax,%eax
  401398:	89 44 24 d8          	mov    %eax,-0x28(%rsp)
  40139c:	8b 44 24 ec          	mov    -0x14(%rsp),%eax
  4013a0:	69 c0 83 17 00 00    	imul   $0x1783,%eax,%eax
  4013a6:	89 44 24 ec          	mov    %eax,-0x14(%rsp)
  4013aa:	8b 44 24 f4          	mov    -0xc(%rsp),%eax
  4013ae:	69 c0 de cc 00 00    	imul   $0xccde,%eax,%eax
  4013b4:	89 44 24 f4          	mov    %eax,-0xc(%rsp)
  4013b8:	8b 44 24 dc          	mov    -0x24(%rsp),%eax
  4013bc:	69 c0 81 8b 00 00    	imul   $0x8b81,%eax,%eax
  4013c2:	89 44 24 dc          	mov    %eax,-0x24(%rsp)
  4013c6:	8b 44 24 e0          	mov    -0x20(%rsp),%eax
  4013ca:	69 c0 89 04 00 00    	imul   $0x489,%eax,%eax
  4013d0:	89 44 24 e0          	mov    %eax,-0x20(%rsp)
  4013d4:	8b 44 24 d4          	mov    -0x2c(%rsp),%eax
  4013d8:	69 c0 f7 b1 00 00    	imul   $0xb1f7,%eax,%eax
  4013de:	89 44 24 d4          	mov    %eax,-0x2c(%rsp)
  4013e2:	8b 44 24 e4          	mov    -0x1c(%rsp),%eax
  4013e6:	69 c0 0a 05 00 00    	imul   $0x50a,%eax,%eax
  4013ec:	89 44 24 e4          	mov    %eax,-0x1c(%rsp)
  4013f0:	8b 44 24 dc          	mov    -0x24(%rsp),%eax
  4013f4:	69 c0 e1 ff 00 00    	imul   $0xffe1,%eax,%eax
  4013fa:	89 44 24 dc          	mov    %eax,-0x24(%rsp)
  4013fe:	8b 44 24 d4          	mov    -0x2c(%rsp),%eax
  401402:	69 c0 2a 6b 00 00    	imul   $0x6b2a,%eax,%eax
  401408:	89 44 24 d4          	mov    %eax,-0x2c(%rsp)
  40140c:	8b 44 24 d8          	mov    -0x28(%rsp),%eax
  401410:	69 c0 ae e6 00 00    	imul   $0xe6ae,%eax,%eax
  401416:	89 44 24 d8          	mov    %eax,-0x28(%rsp)
  40141a:	8b 44 24 e4          	mov    -0x1c(%rsp),%eax
  40141e:	69 c0 46 86 00 00    	imul   $0x8646,%eax,%eax
  401424:	89 44 24 e4          	mov    %eax,-0x1c(%rsp)
  401428:	8b 44 24 dc          	mov    -0x24(%rsp),%eax
  40142c:	69 c0 b6 d8 00 00    	imul   $0xd8b6,%eax,%eax
  401432:	89 44 24 dc          	mov    %eax,-0x24(%rsp)
  401436:	8b 44 24 f0          	mov    -0x10(%rsp),%eax
  40143a:	69 c0 41 ad 00 00    	imul   $0xad41,%eax,%eax
  401440:	89 44 24 f0          	mov    %eax,-0x10(%rsp)
  401444:	8b 44 24 d8          	mov    -0x28(%rsp),%eax
  401448:	69 c0 ba 80 00 00    	imul   $0x80ba,%eax,%eax
  40144e:	89 44 24 d8          	mov    %eax,-0x28(%rsp)
  401452:	8b 44 24 dc          	mov    -0x24(%rsp),%eax
  401456:	69 c0 45 0f 00 00    	imul   $0xf45,%eax,%eax
  40145c:	89 44 24 dc          	mov    %eax,-0x24(%rsp)
  401460:	8b 44 24 e0          	mov    -0x20(%rsp),%eax
  401464:	69 c0 b0 ff 00 00    	imul   $0xffb0,%eax,%eax
  40146a:	89 44 24 e0          	mov    %eax,-0x20(%rsp)
  40146e:	8b 44 24 ec          	mov    -0x14(%rsp),%eax
  401472:	69 c0 a1 7d 00 00    	imul   $0x7da1,%eax,%eax
  401478:	89 44 24 ec          	mov    %eax,-0x14(%rsp)
  40147c:	8b 44 24 f0          	mov    -0x10(%rsp),%eax
  401480:	69 c0 80 82 00 00    	imul   $0x8280,%eax,%eax
  401486:	89 44 24 f0          	mov    %eax,-0x10(%rsp)
  40148a:	8b 44 24 e4          	mov    -0x1c(%rsp),%eax
  40148e:	69 c0 04 31 00 00    	imul   $0x3104,%eax,%eax
  401494:	89 44 24 e4          	mov    %eax,-0x1c(%rsp)
  401498:	8b 44 24 e4          	mov    -0x1c(%rsp),%eax
  40149c:	69 c0 a5 53 00 00    	imul   $0x53a5,%eax,%eax
  4014a2:	89 44 24 e4          	mov    %eax,-0x1c(%rsp)
  4014a6:	8b 44 24 d0          	mov    -0x30(%rsp),%eax
  4014aa:	69 c0 0b 80 00 00    	imul   $0x800b,%eax,%eax
  4014b0:	89 44 24 d0          	mov    %eax,-0x30(%rsp)
  4014b4:	8b 44 24 ec          	mov    -0x14(%rsp),%eax
  4014b8:	69 c0 80 ac 00 00    	imul   $0xac80,%eax,%eax
  4014be:	89 44 24 ec          	mov    %eax,-0x14(%rsp)
  4014c2:	8b 44 24 ec          	mov    -0x14(%rsp),%eax
  4014c6:	69 c0 2c 09 00 00    	imul   $0x92c,%eax,%eax
  4014cc:	89 44 24 ec          	mov    %eax,-0x14(%rsp)
  4014d0:	8b 44 24 d0          	mov    -0x30(%rsp),%eax
  4014d4:	69 c0 bc bf 00 00    	imul   $0xbfbc,%eax,%eax
  4014da:	89 44 24 d0          	mov    %eax,-0x30(%rsp)
  4014de:	8b 44 24 e8          	mov    -0x18(%rsp),%eax
  4014e2:	69 c0 50 61 00 00    	imul   $0x6150,%eax,%eax
  4014e8:	89 44 24 e8          	mov    %eax,-0x18(%rsp)
  4014ec:	8b 44 24 d8          	mov    -0x28(%rsp),%eax
  4014f0:	69 c0 6a 27 00 00    	imul   $0x276a,%eax,%eax
  4014f6:	89 44 24 d8          	mov    %eax,-0x28(%rsp)
  4014fa:	8b 44 24 d0          	mov    -0x30(%rsp),%eax
  4014fe:	69 c0 2d f3 00 00    	imul   $0xf32d,%eax,%eax
  401504:	89 44 24 d0          	mov    %eax,-0x30(%rsp)
  401508:	8b 44 24 d0          	mov    -0x30(%rsp),%eax
  40150c:	69 c0 c6 64 00 00    	imul   $0x64c6,%eax,%eax
  401512:	89 44 24 d0          	mov    %eax,-0x30(%rsp)
  401516:	8b 44 24 d8          	mov    -0x28(%rsp),%eax
  40151a:	69 c0 16 f0 00 00    	imul   $0xf016,%eax,%eax
  401520:	89 44 24 d8          	mov    %eax,-0x28(%rsp)
  401524:	8b 44 24 e4          	mov    -0x1c(%rsp),%eax
  401528:	69 c0 1b 90 00 00    	imul   $0x901b,%eax,%eax
  40152e:	89 44 24 e4          	mov    %eax,-0x1c(%rsp)
  401532:	8b 44 24 e4          	mov    -0x1c(%rsp),%eax
  401536:	69 c0 6d 52 00 00    	imul   $0x526d,%eax,%eax
  40153c:	89 44 24 e4          	mov    %eax,-0x1c(%rsp)
  401540:	8b 44 24 e4          	mov    -0x1c(%rsp),%eax
  401544:	69 c0 fa 91 00 00    	imul   $0x91fa,%eax,%eax
  40154a:	89 44 24 e4          	mov    %eax,-0x1c(%rsp)
  40154e:	8b 44 24 e0          	mov    -0x20(%rsp),%eax
  401552:	69 c0 fe a6 00 00    	imul   $0xa6fe,%eax,%eax
  401558:	89 44 24 e0          	mov    %eax,-0x20(%rsp)
  40155c:	8b 44 24 d8          	mov    -0x28(%rsp),%eax
  401560:	69 c0 8f 1a 00 00    	imul   $0x1a8f,%eax,%eax
  401566:	89 44 24 d8          	mov    %eax,-0x28(%rsp)
  40156a:	8b 44 24 f0          	mov    -0x10(%rsp),%eax
  40156e:	69 c0 7b 22 00 00    	imul   $0x227b,%eax,%eax
  401574:	89 44 24 f0          	mov    %eax,-0x10(%rsp)
  401578:	8b 44 24 d0          	mov    -0x30(%rsp),%eax
  40157c:	69 c0 8f 0d 00 00    	imul   $0xd8f,%eax,%eax
  401582:	89 44 24 d0          	mov    %eax,-0x30(%rsp)
  401586:	8b 44 24 e0          	mov    -0x20(%rsp),%eax
  40158a:	69 c0 d0 73 00 00    	imul   $0x73d0,%eax,%eax
  401590:	89 44 24 e0          	mov    %eax,-0x20(%rsp)
  401594:	8b 44 24 d0          	mov    -0x30(%rsp),%eax
  401598:	69 c0 9b 27 00 00    	imul   $0x279b,%eax,%eax
  40159e:	89 44 24 d0          	mov    %eax,-0x30(%rsp)
  4015a2:	8b 44 24 f4          	mov    -0xc(%rsp),%eax
  4015a6:	69 c0 71 66 00 00    	imul   $0x6671,%eax,%eax
  4015ac:	89 44 24 f4          	mov    %eax,-0xc(%rsp)
  4015b0:	8b 44 24 d8          	mov    -0x28(%rsp),%eax
  4015b4:	69 c0 52 f1 00 00    	imul   $0xf152,%eax,%eax
  4015ba:	89 44 24 d8          	mov    %eax,-0x28(%rsp)
  4015be:	8b 44 24 e0          	mov    -0x20(%rsp),%eax
  4015c2:	69 c0 c1 8d 00 00    	imul   $0x8dc1,%eax,%eax
  4015c8:	89 44 24 e0          	mov    %eax,-0x20(%rsp)
  4015cc:	8b 44 24 f0          	mov    -0x10(%rsp),%eax
  4015d0:	69 c0 58 af 00 00    	imul   $0xaf58,%eax,%eax
  4015d6:	89 44 24 f0          	mov    %eax,-0x10(%rsp)
  4015da:	8b 44 24 e0          	mov    -0x20(%rsp),%eax
  4015de:	69 c0 dd 18 00 00    	imul   $0x18dd,%eax,%eax
  4015e4:	89 44 24 e0          	mov    %eax,-0x20(%rsp)
  4015e8:	8b 44 24 ec          	mov    -0x14(%rsp),%eax
  4015ec:	69 c0 5c 21 00 00    	imul   $0x215c,%eax,%eax
  4015f2:	89 44 24 ec          	mov    %eax,-0x14(%rsp)
  4015f6:	8b 44 24 dc          	mov    -0x24(%rsp),%eax
  4015fa:	69 c0 9f f9 00 00    	imul   $0xf99f,%eax,%eax
  401600:	89 44 24 dc          	mov    %eax,-0x24(%rsp)
  401604:	8b 44 24 e0          	mov    -0x20(%rsp),%eax
  401608:	69 c0 4f 08 00 00    	imul   $0x84f,%eax,%eax
  40160e:	89 44 24 e0          	mov    %eax,-0x20(%rsp)
  401612:	8b 44 24 ec          	mov    -0x14(%rsp),%eax
  401616:	69 c0 42 41 00 00    	imul   $0x4142,%eax,%eax
  40161c:	89 44 24 ec          	mov    %eax,-0x14(%rsp)
  401620:	8b 44 24 d8          	mov    -0x28(%rsp),%eax
  401624:	69 c0 1b 1c 00 00    	imul   $0x1c1b,%eax,%eax
  40162a:	89 44 24 d8          	mov    %eax,-0x28(%rsp)
  40162e:	8b 44 24 f0          	mov    -0x10(%rsp),%eax
  401632:	69 c0 c3 ae 00 00    	imul   $0xaec3,%eax,%eax
  401638:	89 44 24 f0          	mov    %eax,-0x10(%rsp)
  40163c:	8b 44 24 e0          	mov    -0x20(%rsp),%eax
  401640:	69 c0 42 c0 00 00    	imul   $0xc042,%eax,%eax
  401646:	89 44 24 e0          	mov    %eax,-0x20(%rsp)
  40164a:	8b 44 24 d8          	mov    -0x28(%rsp),%eax
  40164e:	69 c0 de a4 00 00    	imul   $0xa4de,%eax,%eax
  401654:	89 44 24 d8          	mov    %eax,-0x28(%rsp)
  401658:	8b 44 24 f4          	mov    -0xc(%rsp),%eax
  40165c:	69 c0 c4 73 00 00    	imul   $0x73c4,%eax,%eax
  401662:	89 44 24 f4          	mov    %eax,-0xc(%rsp)
  401666:	8b 44 24 d4          	mov    -0x2c(%rsp),%eax
  40166a:	69 c0 e2 87 00 00    	imul   $0x87e2,%eax,%eax
  401670:	89 44 24 d4          	mov    %eax,-0x2c(%rsp)
  401674:	8b 44 24 d4          	mov    -0x2c(%rsp),%eax
  401678:	69 c0 ab 95 00 00    	imul   $0x95ab,%eax,%eax
  40167e:	89 44 24 d4          	mov    %eax,-0x2c(%rsp)
  401682:	8b 44 24 e0          	mov    -0x20(%rsp),%eax
  401686:	69 c0 b6 82 00 00    	imul   $0x82b6,%eax,%eax
  40168c:	89 44 24 e0          	mov    %eax,-0x20(%rsp)
  401690:	8b 44 24 ec          	mov    -0x14(%rsp),%eax
  401694:	69 c0 15 b6 00 00    	imul   $0xb615,%eax,%eax
  40169a:	89 44 24 ec          	mov    %eax,-0x14(%rsp)
  40169e:	8b 44 24 d8          	mov    -0x28(%rsp),%eax
  4016a2:	69 c0 ba 9f 00 00    	imul   $0x9fba,%eax,%eax
  4016a8:	89 44 24 d8          	mov    %eax,-0x28(%rsp)
  4016ac:	8b 44 24 ec          	mov    -0x14(%rsp),%eax
  4016b0:	69 c0 65 91 00 00    	imul   $0x9165,%eax,%eax
  4016b6:	89 44 24 ec          	mov    %eax,-0x14(%rsp)
  4016ba:	8b 44 24 e4          	mov    -0x1c(%rsp),%eax
  4016be:	69 c0 8c 79 00 00    	imul   $0x798c,%eax,%eax
  4016c4:	89 44 24 e4          	mov    %eax,-0x1c(%rsp)
  4016c8:	8b 44 24 dc          	mov    -0x24(%rsp),%eax
  4016cc:	69 c0 8b c1 00 00    	imul   $0xc18b,%eax,%eax
  4016d2:	89 44 24 dc          	mov    %eax,-0x24(%rsp)
  4016d6:	8b 44 24 d8          	mov    -0x28(%rsp),%eax
  4016da:	69 c0 39 64 00 00    	imul   $0x6439,%eax,%eax
  4016e0:	89 44 24 d8          	mov    %eax,-0x28(%rsp)
  4016e4:	ba 00 00 00 00       	mov    $0x0,%edx
  4016e9:	b8 00 00 00 00       	mov    $0x0,%eax
  4016ee:	eb 0b                	jmp    4016fb <scramble+0x478>
  4016f0:	89 d1                	mov    %edx,%ecx
  4016f2:	8b 4c 8c d0          	mov    -0x30(%rsp,%rcx,4),%ecx
  4016f6:	01 c8                	add    %ecx,%eax
  4016f8:	83 c2 01             	add    $0x1,%edx
  4016fb:	83 fa 09             	cmp    $0x9,%edx
  4016fe:	76 f0                	jbe    4016f0 <scramble+0x46d>
  401700:	f3 c3                	repz retq 

0000000000401702 <getbuf>:
  401702:	48 83 ec 18          	sub    $0x18,%rsp
  401706:	48 89 e7             	mov    %rsp,%rdi
  401709:	e8 4c 03 00 00       	callq  401a5a <Gets>
  40170e:	b8 01 00 00 00       	mov    $0x1,%eax
  401713:	48 83 c4 18          	add    $0x18,%rsp
  401717:	c3                   	retq   

0000000000401718 <touch1>:
  401718:	48 83 ec 08          	sub    $0x8,%rsp
  40171c:	c7 05 b6 3d 20 00 01 	movl   $0x1,0x203db6(%rip)        # 6054dc <vlevel>
  401723:	00 00 00 
  401726:	bf 83 30 40 00       	mov    $0x403083,%edi
  40172b:	e8 00 f5 ff ff       	callq  400c30 <puts@plt>
  401730:	bf 01 00 00 00       	mov    $0x1,%edi
  401735:	e8 0f 05 00 00       	callq  401c49 <validate>
  40173a:	bf 00 00 00 00       	mov    $0x0,%edi
  40173f:	e8 7c f6 ff ff       	callq  400dc0 <exit@plt>

0000000000401744 <touch2>:
  401744:	48 83 ec 08          	sub    $0x8,%rsp
  401748:	89 fe                	mov    %edi,%esi
  40174a:	c7 05 88 3d 20 00 02 	movl   $0x2,0x203d88(%rip)        # 6054dc <vlevel>
  401751:	00 00 00 
  401754:	3b 3d 8a 3d 20 00    	cmp    0x203d8a(%rip),%edi        # 6054e4 <cookie>
  40175a:	75 1b                	jne    401777 <touch2+0x33>
  40175c:	bf a8 30 40 00       	mov    $0x4030a8,%edi
  401761:	b8 00 00 00 00       	mov    $0x0,%eax
  401766:	e8 f5 f4 ff ff       	callq  400c60 <printf@plt>
  40176b:	bf 02 00 00 00       	mov    $0x2,%edi
  401770:	e8 d4 04 00 00       	callq  401c49 <validate>
  401775:	eb 19                	jmp    401790 <touch2+0x4c>
  401777:	bf d0 30 40 00       	mov    $0x4030d0,%edi
  40177c:	b8 00 00 00 00       	mov    $0x0,%eax
  401781:	e8 da f4 ff ff       	callq  400c60 <printf@plt>
  401786:	bf 02 00 00 00       	mov    $0x2,%edi
  40178b:	e8 6b 05 00 00       	callq  401cfb <fail>
  401790:	bf 00 00 00 00       	mov    $0x0,%edi
  401795:	e8 26 f6 ff ff       	callq  400dc0 <exit@plt>

000000000040179a <hexmatch>:
  40179a:	41 54                	push   %r12
  40179c:	55                   	push   %rbp
  40179d:	53                   	push   %rbx
  40179e:	48 83 ec 70          	sub    $0x70,%rsp
  4017a2:	41 89 fc             	mov    %edi,%r12d
  4017a5:	48 89 f5             	mov    %rsi,%rbp
  4017a8:	e8 73 f5 ff ff       	callq  400d20 <random@plt>
  4017ad:	48 89 c1             	mov    %rax,%rcx
  4017b0:	48 ba 0b d7 a3 70 3d 	movabs $0xa3d70a3d70a3d70b,%rdx
  4017b7:	0a d7 a3 
  4017ba:	48 f7 ea             	imul   %rdx
  4017bd:	48 8d 04 0a          	lea    (%rdx,%rcx,1),%rax
  4017c1:	48 c1 f8 06          	sar    $0x6,%rax
  4017c5:	48 89 ce             	mov    %rcx,%rsi
  4017c8:	48 c1 fe 3f          	sar    $0x3f,%rsi
  4017cc:	48 29 f0             	sub    %rsi,%rax
  4017cf:	48 8d 04 80          	lea    (%rax,%rax,4),%rax
  4017d3:	48 8d 04 80          	lea    (%rax,%rax,4),%rax
  4017d7:	48 c1 e0 02          	shl    $0x2,%rax
  4017db:	48 29 c1             	sub    %rax,%rcx
  4017de:	48 8d 1c 0c          	lea    (%rsp,%rcx,1),%rbx
  4017e2:	44 89 e2             	mov    %r12d,%edx
  4017e5:	be a0 30 40 00       	mov    $0x4030a0,%esi
  4017ea:	48 89 df             	mov    %rbx,%rdi
  4017ed:	b8 00 00 00 00       	mov    $0x0,%eax
  4017f2:	e8 b9 f5 ff ff       	callq  400db0 <sprintf@plt>
  4017f7:	ba 09 00 00 00       	mov    $0x9,%edx
  4017fc:	48 89 de             	mov    %rbx,%rsi
  4017ff:	48 89 ef             	mov    %rbp,%rdi
  401802:	e8 09 f4 ff ff       	callq  400c10 <strncmp@plt>
  401807:	85 c0                	test   %eax,%eax
  401809:	0f 94 c0             	sete   %al
  40180c:	0f b6 c0             	movzbl %al,%eax
  40180f:	48 83 c4 70          	add    $0x70,%rsp
  401813:	5b                   	pop    %rbx
  401814:	5d                   	pop    %rbp
  401815:	41 5c                	pop    %r12
  401817:	c3                   	retq   

0000000000401818 <touch3>:
  401818:	53                   	push   %rbx
  401819:	48 89 fb             	mov    %rdi,%rbx
  40181c:	c7 05 b6 3c 20 00 03 	movl   $0x3,0x203cb6(%rip)        # 6054dc <vlevel>
  401823:	00 00 00 
  401826:	48 89 fe             	mov    %rdi,%rsi
  401829:	8b 3d b5 3c 20 00    	mov    0x203cb5(%rip),%edi        # 6054e4 <cookie>
  40182f:	e8 66 ff ff ff       	callq  40179a <hexmatch>
  401834:	85 c0                	test   %eax,%eax
  401836:	74 1e                	je     401856 <touch3+0x3e>
  401838:	48 89 de             	mov    %rbx,%rsi
  40183b:	bf f8 30 40 00       	mov    $0x4030f8,%edi
  401840:	b8 00 00 00 00       	mov    $0x0,%eax
  401845:	e8 16 f4 ff ff       	callq  400c60 <printf@plt>
  40184a:	bf 03 00 00 00       	mov    $0x3,%edi
  40184f:	e8 f5 03 00 00       	callq  401c49 <validate>
  401854:	eb 1c                	jmp    401872 <touch3+0x5a>
  401856:	48 89 de             	mov    %rbx,%rsi
  401859:	bf 20 31 40 00       	mov    $0x403120,%edi
  40185e:	b8 00 00 00 00       	mov    $0x0,%eax
  401863:	e8 f8 f3 ff ff       	callq  400c60 <printf@plt>
  401868:	bf 03 00 00 00       	mov    $0x3,%edi
  40186d:	e8 89 04 00 00       	callq  401cfb <fail>
  401872:	bf 00 00 00 00       	mov    $0x0,%edi
  401877:	e8 44 f5 ff ff       	callq  400dc0 <exit@plt>

000000000040187c <test>:
  40187c:	48 83 ec 08          	sub    $0x8,%rsp
  401880:	b8 00 00 00 00       	mov    $0x0,%eax
  401885:	e8 78 fe ff ff       	callq  401702 <getbuf>
  40188a:	89 c6                	mov    %eax,%esi
  40188c:	bf 48 31 40 00       	mov    $0x403148,%edi
  401891:	b8 00 00 00 00       	mov    $0x0,%eax
  401896:	e8 c5 f3 ff ff       	callq  400c60 <printf@plt>
  40189b:	48 83 c4 08          	add    $0x8,%rsp
  40189f:	c3                   	retq   

00000000004018a0 <start_farm>:
  4018a0:	b8 01 00 00 00       	mov    $0x1,%eax
  4018a5:	c3                   	retq   

00000000004018a6 <getval_144>:
  4018a6:	b8 58 c2 bb a1       	mov    $0xa1bbc258,%eax
  4018ab:	c3                   	retq   

00000000004018ac <getval_360>:
  4018ac:	b8 48 90 c3 3e       	mov    $0x3ec39048,%eax
  4018b1:	c3                   	retq   

00000000004018b2 <getval_315>:
  4018b2:	b8 59 08 89 c7       	mov    $0xc7890859,%eax
  4018b7:	c3                   	retq   

00000000004018b8 <getval_254>:
  4018b8:	b8 48 89 c7 c3       	mov    $0xc3c78948,%eax
  4018bd:	c3                   	retq   

00000000004018be <addval_376>:
  4018be:	8d 87 48 89 c7 90    	lea    -0x6f3876b8(%rdi),%eax
  4018c4:	c3                   	retq   

00000000004018c5 <getval_423>:
  4018c5:	b8 7a 54 58 90       	mov    $0x9058547a,%eax
  4018ca:	c3                   	retq   

00000000004018cb <addval_230>:
  4018cb:	8d 87 51 48 8b c7    	lea    -0x3874b7af(%rdi),%eax
  4018d1:	c3                   	retq   

00000000004018d2 <addval_499>:
  4018d2:	8d 87 58 90 c3 00    	lea    0xc39058(%rdi),%eax
  4018d8:	c3                   	retq   

00000000004018d9 <mid_farm>:
  4018d9:	b8 01 00 00 00       	mov    $0x1,%eax
  4018de:	c3                   	retq   

00000000004018df <add_xy>:
  4018df:	48 8d 04 37          	lea    (%rdi,%rsi,1),%rax
  4018e3:	c3                   	retq   

00000000004018e4 <addval_325>:
  4018e4:	8d 87 89 d6 c4 d2    	lea    -0x2d3b2977(%rdi),%eax
  4018ea:	c3                   	retq   

00000000004018eb <getval_333>:
  4018eb:	b8 89 c1 91 c3       	mov    $0xc391c189,%eax
  4018f0:	c3                   	retq   

00000000004018f1 <setval_400>:
  4018f1:	c7 07 89 d6 90 c3    	movl   $0xc390d689,(%rdi)
  4018f7:	c3                   	retq   

00000000004018f8 <setval_425>:
  4018f8:	c7 07 48 88 e0 c3    	movl   $0xc3e08848,(%rdi)
  4018fe:	c3                   	retq   

00000000004018ff <addval_245>:
  4018ff:	8d 87 89 c1 18 d2    	lea    -0x2de73e77(%rdi),%eax
  401905:	c3                   	retq   

0000000000401906 <getval_390>:
  401906:	b8 89 ca 38 c0       	mov    $0xc038ca89,%eax
  40190b:	c3                   	retq   

000000000040190c <addval_489>:
  40190c:	8d 87 89 d6 90 c1    	lea    -0x3e6f2977(%rdi),%eax
  401912:	c3                   	retq   

0000000000401913 <getval_161>:
  401913:	b8 89 d6 48 d2       	mov    $0xd248d689,%eax
  401918:	c3                   	retq   

0000000000401919 <setval_186>:
  401919:	c7 07 29 89 c1 90    	movl   $0x90c18929,(%rdi)
  40191f:	c3                   	retq   

0000000000401920 <setval_241>:
  401920:	c7 07 81 d6 90 c3    	movl   $0xc390d681,(%rdi)
  401926:	c3                   	retq   

0000000000401927 <addval_324>:
  401927:	8d 87 a9 ca 90 c3    	lea    -0x3c6f3557(%rdi),%eax
  40192d:	c3                   	retq   

000000000040192e <getval_471>:
  40192e:	b8 48 89 e0 c3       	mov    $0xc3e08948,%eax
  401933:	c3                   	retq   

0000000000401934 <setval_322>:
  401934:	c7 07 89 d6 08 c9    	movl   $0xc908d689,(%rdi)
  40193a:	c3                   	retq   

000000000040193b <setval_486>:
  40193b:	c7 07 81 d6 38 c0    	movl   $0xc038d681,(%rdi)
  401941:	c3                   	retq   

0000000000401942 <getval_474>:
  401942:	b8 89 c1 a4 c0       	mov    $0xc0a4c189,%eax
  401947:	c3                   	retq   

0000000000401948 <getval_167>:
  401948:	b8 89 ca 94 90       	mov    $0x9094ca89,%eax
  40194d:	c3                   	retq   

000000000040194e <getval_141>:
  40194e:	b8 48 89 e0 c1       	mov    $0xc1e08948,%eax
  401953:	c3                   	retq   

0000000000401954 <addval_304>:
  401954:	8d 87 4a 89 e0 90    	lea    -0x6f1f76b6(%rdi),%eax
  40195a:	c3                   	retq   

000000000040195b <setval_229>:
  40195b:	c7 07 99 c1 90 90    	movl   $0x9090c199,(%rdi)
  401961:	c3                   	retq   

0000000000401962 <addval_473>:
  401962:	8d 87 6a 89 c1 c1    	lea    -0x3e3e7696(%rdi),%eax
  401968:	c3                   	retq   

0000000000401969 <getval_364>:
  401969:	b8 a9 ca 90 90       	mov    $0x9090caa9,%eax
  40196e:	c3                   	retq   

000000000040196f <addval_337>:
  40196f:	8d 87 88 ca 84 d2    	lea    -0x2d7b3578(%rdi),%eax
  401975:	c3                   	retq   

0000000000401976 <getval_301>:
  401976:	b8 aa 89 ca c1       	mov    $0xc1ca89aa,%eax
  40197b:	c3                   	retq   

000000000040197c <addval_200>:
  40197c:	8d 87 3f 48 8d e0    	lea    -0x1f72b7c1(%rdi),%eax
  401982:	c3                   	retq   

0000000000401983 <setval_374>:
  401983:	c7 07 76 89 ca c2    	movl   $0xc2ca8976,(%rdi)
  401989:	c3                   	retq   

000000000040198a <addval_385>:
  40198a:	8d 87 89 ca 38 c0    	lea    -0x3fc73577(%rdi),%eax
  401990:	c3                   	retq   

0000000000401991 <setval_242>:
  401991:	c7 07 48 89 e0 c3    	movl   $0xc3e08948,(%rdi)
  401997:	c3                   	retq   

0000000000401998 <addval_171>:
  401998:	8d 87 89 c1 20 d2    	lea    -0x2ddf3e77(%rdi),%eax
  40199e:	c3                   	retq   

000000000040199f <setval_363>:
  40199f:	c7 07 68 89 e0 c3    	movl   $0xc3e08968,(%rdi)
  4019a5:	c3                   	retq   

00000000004019a6 <setval_416>:
  4019a6:	c7 07 48 89 e0 c1    	movl   $0xc1e08948,(%rdi)
  4019ac:	c3                   	retq   

00000000004019ad <getval_249>:
  4019ad:	b8 81 c1 20 c0       	mov    $0xc020c181,%eax
  4019b2:	c3                   	retq   

00000000004019b3 <addval_283>:
  4019b3:	8d 87 e6 57 99 d6    	lea    -0x2966a81a(%rdi),%eax
  4019b9:	c3                   	retq   

00000000004019ba <end_farm>:
  4019ba:	b8 01 00 00 00       	mov    $0x1,%eax
  4019bf:	c3                   	retq   

00000000004019c0 <save_char>:
  4019c0:	8b 05 3e 47 20 00    	mov    0x20473e(%rip),%eax        # 606104 <gets_cnt>
  4019c6:	3d ff 03 00 00       	cmp    $0x3ff,%eax
  4019cb:	7f 49                	jg     401a16 <save_char+0x56>
  4019cd:	8d 14 40             	lea    (%rax,%rax,2),%edx
  4019d0:	89 f9                	mov    %edi,%ecx
  4019d2:	c0 e9 04             	shr    $0x4,%cl
  4019d5:	83 e1 0f             	and    $0xf,%ecx
  4019d8:	0f b6 b1 70 34 40 00 	movzbl 0x403470(%rcx),%esi
  4019df:	48 63 ca             	movslq %edx,%rcx
  4019e2:	40 88 b1 00 55 60 00 	mov    %sil,0x605500(%rcx)
  4019e9:	8d 4a 01             	lea    0x1(%rdx),%ecx
  4019ec:	83 e7 0f             	and    $0xf,%edi
  4019ef:	0f b6 b7 70 34 40 00 	movzbl 0x403470(%rdi),%esi
  4019f6:	48 63 c9             	movslq %ecx,%rcx
  4019f9:	40 88 b1 00 55 60 00 	mov    %sil,0x605500(%rcx)
  401a00:	83 c2 02             	add    $0x2,%edx
  401a03:	48 63 d2             	movslq %edx,%rdx
  401a06:	c6 82 00 55 60 00 20 	movb   $0x20,0x605500(%rdx)
  401a0d:	83 c0 01             	add    $0x1,%eax
  401a10:	89 05 ee 46 20 00    	mov    %eax,0x2046ee(%rip)        # 606104 <gets_cnt>
  401a16:	f3 c3                	repz retq 

0000000000401a18 <save_term>:
  401a18:	8b 05 e6 46 20 00    	mov    0x2046e6(%rip),%eax        # 606104 <gets_cnt>
  401a1e:	8d 04 40             	lea    (%rax,%rax,2),%eax
  401a21:	48 98                	cltq   
  401a23:	c6 80 00 55 60 00 00 	movb   $0x0,0x605500(%rax)
  401a2a:	c3                   	retq   

0000000000401a2b <check_fail>:
  401a2b:	48 83 ec 08          	sub    $0x8,%rsp
  401a2f:	0f be 35 d2 46 20 00 	movsbl 0x2046d2(%rip),%esi        # 606108 <target_prefix>
  401a36:	b9 00 55 60 00       	mov    $0x605500,%ecx
  401a3b:	8b 15 97 3a 20 00    	mov    0x203a97(%rip),%edx        # 6054d8 <check_level>
  401a41:	bf 6b 31 40 00       	mov    $0x40316b,%edi
  401a46:	b8 00 00 00 00       	mov    $0x0,%eax
  401a4b:	e8 10 f2 ff ff       	callq  400c60 <printf@plt>
  401a50:	bf 01 00 00 00       	mov    $0x1,%edi
  401a55:	e8 66 f3 ff ff       	callq  400dc0 <exit@plt>

0000000000401a5a <Gets>:
  401a5a:	41 54                	push   %r12
  401a5c:	55                   	push   %rbp
  401a5d:	53                   	push   %rbx
  401a5e:	49 89 fc             	mov    %rdi,%r12
  401a61:	c7 05 99 46 20 00 00 	movl   $0x0,0x204699(%rip)        # 606104 <gets_cnt>
  401a68:	00 00 00 
  401a6b:	48 89 fb             	mov    %rdi,%rbx
  401a6e:	eb 11                	jmp    401a81 <Gets+0x27>
  401a70:	48 8d 6b 01          	lea    0x1(%rbx),%rbp
  401a74:	88 03                	mov    %al,(%rbx)
  401a76:	0f b6 f8             	movzbl %al,%edi
  401a79:	e8 42 ff ff ff       	callq  4019c0 <save_char>
  401a7e:	48 89 eb             	mov    %rbp,%rbx
  401a81:	48 8b 3d 48 3a 20 00 	mov    0x203a48(%rip),%rdi        # 6054d0 <infile>
  401a88:	e8 a3 f2 ff ff       	callq  400d30 <_IO_getc@plt>
  401a8d:	83 f8 ff             	cmp    $0xffffffff,%eax
  401a90:	74 05                	je     401a97 <Gets+0x3d>
  401a92:	83 f8 0a             	cmp    $0xa,%eax
  401a95:	75 d9                	jne    401a70 <Gets+0x16>
  401a97:	c6 03 00             	movb   $0x0,(%rbx)
  401a9a:	b8 00 00 00 00       	mov    $0x0,%eax
  401a9f:	e8 74 ff ff ff       	callq  401a18 <save_term>
  401aa4:	4c 89 e0             	mov    %r12,%rax
  401aa7:	5b                   	pop    %rbx
  401aa8:	5d                   	pop    %rbp
  401aa9:	41 5c                	pop    %r12
  401aab:	c3                   	retq   

0000000000401aac <notify_server>:
  401aac:	83 3d 35 3a 20 00 00 	cmpl   $0x0,0x203a35(%rip)        # 6054e8 <is_checker>
  401ab3:	0f 85 8e 01 00 00    	jne    401c47 <notify_server+0x19b>
  401ab9:	53                   	push   %rbx
  401aba:	48 81 ec 10 40 00 00 	sub    $0x4010,%rsp
  401ac1:	89 fb                	mov    %edi,%ebx
  401ac3:	8b 05 3b 46 20 00    	mov    0x20463b(%rip),%eax        # 606104 <gets_cnt>
  401ac9:	83 c0 64             	add    $0x64,%eax
  401acc:	3d 00 20 00 00       	cmp    $0x2000,%eax
  401ad1:	7e 19                	jle    401aec <notify_server+0x40>
  401ad3:	bf a0 32 40 00       	mov    $0x4032a0,%edi
  401ad8:	b8 00 00 00 00       	mov    $0x0,%eax
  401add:	e8 7e f1 ff ff       	callq  400c60 <printf@plt>
  401ae2:	bf 01 00 00 00       	mov    $0x1,%edi
  401ae7:	e8 d4 f2 ff ff       	callq  400dc0 <exit@plt>
  401aec:	44 0f be 0d 14 46 20 	movsbl 0x204614(%rip),%r9d        # 606108 <target_prefix>
  401af3:	00 
  401af4:	83 3d 8d 39 20 00 00 	cmpl   $0x0,0x20398d(%rip)        # 605488 <notify>
  401afb:	74 09                	je     401b06 <notify_server+0x5a>
  401afd:	44 8b 05 dc 39 20 00 	mov    0x2039dc(%rip),%r8d        # 6054e0 <authkey>
  401b04:	eb 06                	jmp    401b0c <notify_server+0x60>
  401b06:	41 b8 ff ff ff ff    	mov    $0xffffffff,%r8d
  401b0c:	85 db                	test   %ebx,%ebx
  401b0e:	74 07                	je     401b17 <notify_server+0x6b>
  401b10:	b9 81 31 40 00       	mov    $0x403181,%ecx
  401b15:	eb 05                	jmp    401b1c <notify_server+0x70>
  401b17:	b9 86 31 40 00       	mov    $0x403186,%ecx
  401b1c:	48 c7 44 24 08 00 55 	movq   $0x605500,0x8(%rsp)
  401b23:	60 00 
  401b25:	89 34 24             	mov    %esi,(%rsp)
  401b28:	8b 15 1a 36 20 00    	mov    0x20361a(%rip),%edx        # 605148 <target_id>
  401b2e:	be 8b 31 40 00       	mov    $0x40318b,%esi
  401b33:	48 8d bc 24 10 20 00 	lea    0x2010(%rsp),%rdi
  401b3a:	00 
  401b3b:	b8 00 00 00 00       	mov    $0x0,%eax
  401b40:	e8 6b f2 ff ff       	callq  400db0 <sprintf@plt>
  401b45:	83 3d 3c 39 20 00 00 	cmpl   $0x0,0x20393c(%rip)        # 605488 <notify>
  401b4c:	74 78                	je     401bc6 <notify_server+0x11a>
  401b4e:	85 db                	test   %ebx,%ebx
  401b50:	74 68                	je     401bba <notify_server+0x10e>
  401b52:	4c 8d 4c 24 10       	lea    0x10(%rsp),%r9
  401b57:	41 b8 00 00 00 00    	mov    $0x0,%r8d
  401b5d:	48 8d 8c 24 10 20 00 	lea    0x2010(%rsp),%rcx
  401b64:	00 
  401b65:	48 8b 15 e4 35 20 00 	mov    0x2035e4(%rip),%rdx        # 605150 <lab>
  401b6c:	48 8b 35 e5 35 20 00 	mov    0x2035e5(%rip),%rsi        # 605158 <course>
  401b73:	48 8b 3d c6 35 20 00 	mov    0x2035c6(%rip),%rdi        # 605140 <user_id>
  401b7a:	e8 94 0f 00 00       	callq  402b13 <driver_post>
  401b7f:	85 c0                	test   %eax,%eax
  401b81:	79 1e                	jns    401ba1 <notify_server+0xf5>
  401b83:	48 8d 74 24 10       	lea    0x10(%rsp),%rsi
  401b88:	bf a7 31 40 00       	mov    $0x4031a7,%edi
  401b8d:	b8 00 00 00 00       	mov    $0x0,%eax
  401b92:	e8 c9 f0 ff ff       	callq  400c60 <printf@plt>
  401b97:	bf 01 00 00 00       	mov    $0x1,%edi
  401b9c:	e8 1f f2 ff ff       	callq  400dc0 <exit@plt>
  401ba1:	bf d0 32 40 00       	mov    $0x4032d0,%edi
  401ba6:	e8 85 f0 ff ff       	callq  400c30 <puts@plt>
  401bab:	bf b3 31 40 00       	mov    $0x4031b3,%edi
  401bb0:	e8 7b f0 ff ff       	callq  400c30 <puts@plt>
  401bb5:	e9 85 00 00 00       	jmpq   401c3f <notify_server+0x193>
  401bba:	bf bd 31 40 00       	mov    $0x4031bd,%edi
  401bbf:	e8 6c f0 ff ff       	callq  400c30 <puts@plt>
  401bc4:	eb 79                	jmp    401c3f <notify_server+0x193>
  401bc6:	85 db                	test   %ebx,%ebx
  401bc8:	74 08                	je     401bd2 <notify_server+0x126>
  401bca:	be 81 31 40 00       	mov    $0x403181,%esi
  401bcf:	90                   	nop
  401bd0:	eb 05                	jmp    401bd7 <notify_server+0x12b>
  401bd2:	be 86 31 40 00       	mov    $0x403186,%esi
  401bd7:	bf 08 33 40 00       	mov    $0x403308,%edi
  401bdc:	b8 00 00 00 00       	mov    $0x0,%eax
  401be1:	e8 7a f0 ff ff       	callq  400c60 <printf@plt>
  401be6:	48 8b 35 53 35 20 00 	mov    0x203553(%rip),%rsi        # 605140 <user_id>
  401bed:	bf c4 31 40 00       	mov    $0x4031c4,%edi
  401bf2:	b8 00 00 00 00       	mov    $0x0,%eax
  401bf7:	e8 64 f0 ff ff       	callq  400c60 <printf@plt>
  401bfc:	48 8b 35 55 35 20 00 	mov    0x203555(%rip),%rsi        # 605158 <course>
  401c03:	bf d1 31 40 00       	mov    $0x4031d1,%edi
  401c08:	b8 00 00 00 00       	mov    $0x0,%eax
  401c0d:	e8 4e f0 ff ff       	callq  400c60 <printf@plt>
  401c12:	48 8b 35 37 35 20 00 	mov    0x203537(%rip),%rsi        # 605150 <lab>
  401c19:	bf dd 31 40 00       	mov    $0x4031dd,%edi
  401c1e:	b8 00 00 00 00       	mov    $0x0,%eax
  401c23:	e8 38 f0 ff ff       	callq  400c60 <printf@plt>
  401c28:	48 8d b4 24 10 20 00 	lea    0x2010(%rsp),%rsi
  401c2f:	00 
  401c30:	bf e6 31 40 00       	mov    $0x4031e6,%edi
  401c35:	b8 00 00 00 00       	mov    $0x0,%eax
  401c3a:	e8 21 f0 ff ff       	callq  400c60 <printf@plt>
  401c3f:	48 81 c4 10 40 00 00 	add    $0x4010,%rsp
  401c46:	5b                   	pop    %rbx
  401c47:	f3 c3                	repz retq 

0000000000401c49 <validate>:
  401c49:	53                   	push   %rbx
  401c4a:	89 fb                	mov    %edi,%ebx
  401c4c:	83 3d 95 38 20 00 00 	cmpl   $0x0,0x203895(%rip)        # 6054e8 <is_checker>
  401c53:	74 60                	je     401cb5 <validate+0x6c>
  401c55:	39 3d 81 38 20 00    	cmp    %edi,0x203881(%rip)        # 6054dc <vlevel>
  401c5b:	74 14                	je     401c71 <validate+0x28>
  401c5d:	bf f2 31 40 00       	mov    $0x4031f2,%edi
  401c62:	e8 c9 ef ff ff       	callq  400c30 <puts@plt>
  401c67:	b8 00 00 00 00       	mov    $0x0,%eax
  401c6c:	e8 ba fd ff ff       	callq  401a2b <check_fail>
  401c71:	8b 35 61 38 20 00    	mov    0x203861(%rip),%esi        # 6054d8 <check_level>
  401c77:	39 fe                	cmp    %edi,%esi
  401c79:	74 1b                	je     401c96 <validate+0x4d>
  401c7b:	89 fa                	mov    %edi,%edx
  401c7d:	bf 30 33 40 00       	mov    $0x403330,%edi
  401c82:	b8 00 00 00 00       	mov    $0x0,%eax
  401c87:	e8 d4 ef ff ff       	callq  400c60 <printf@plt>
  401c8c:	b8 00 00 00 00       	mov    $0x0,%eax
  401c91:	e8 95 fd ff ff       	callq  401a2b <check_fail>
  401c96:	0f be 35 6b 44 20 00 	movsbl 0x20446b(%rip),%esi        # 606108 <target_prefix>
  401c9d:	b9 00 55 60 00       	mov    $0x605500,%ecx
  401ca2:	89 fa                	mov    %edi,%edx
  401ca4:	bf 10 32 40 00       	mov    $0x403210,%edi
  401ca9:	b8 00 00 00 00       	mov    $0x0,%eax
  401cae:	e8 ad ef ff ff       	callq  400c60 <printf@plt>
  401cb3:	eb 44                	jmp    401cf9 <validate+0xb0>
  401cb5:	39 3d 21 38 20 00    	cmp    %edi,0x203821(%rip)        # 6054dc <vlevel>
  401cbb:	74 18                	je     401cd5 <validate+0x8c>
  401cbd:	bf f2 31 40 00       	mov    $0x4031f2,%edi
  401cc2:	e8 69 ef ff ff       	callq  400c30 <puts@plt>
  401cc7:	89 de                	mov    %ebx,%esi
  401cc9:	bf 00 00 00 00       	mov    $0x0,%edi
  401cce:	e8 d9 fd ff ff       	callq  401aac <notify_server>
  401cd3:	eb 24                	jmp    401cf9 <validate+0xb0>
  401cd5:	0f be 15 2c 44 20 00 	movsbl 0x20442c(%rip),%edx        # 606108 <target_prefix>
  401cdc:	89 fe                	mov    %edi,%esi
  401cde:	bf 58 33 40 00       	mov    $0x403358,%edi
  401ce3:	b8 00 00 00 00       	mov    $0x0,%eax
  401ce8:	e8 73 ef ff ff       	callq  400c60 <printf@plt>
  401ced:	89 de                	mov    %ebx,%esi
  401cef:	bf 01 00 00 00       	mov    $0x1,%edi
  401cf4:	e8 b3 fd ff ff       	callq  401aac <notify_server>
  401cf9:	5b                   	pop    %rbx
  401cfa:	c3                   	retq   

0000000000401cfb <fail>:
  401cfb:	48 83 ec 08          	sub    $0x8,%rsp
  401cff:	83 3d e2 37 20 00 00 	cmpl   $0x0,0x2037e2(%rip)        # 6054e8 <is_checker>
  401d06:	74 0a                	je     401d12 <fail+0x17>
  401d08:	b8 00 00 00 00       	mov    $0x0,%eax
  401d0d:	e8 19 fd ff ff       	callq  401a2b <check_fail>
  401d12:	89 fe                	mov    %edi,%esi
  401d14:	bf 00 00 00 00       	mov    $0x0,%edi
  401d19:	e8 8e fd ff ff       	callq  401aac <notify_server>
  401d1e:	48 83 c4 08          	add    $0x8,%rsp
  401d22:	c3                   	retq   

0000000000401d23 <bushandler>:
  401d23:	48 83 ec 08          	sub    $0x8,%rsp
  401d27:	83 3d ba 37 20 00 00 	cmpl   $0x0,0x2037ba(%rip)        # 6054e8 <is_checker>
  401d2e:	74 14                	je     401d44 <bushandler+0x21>
  401d30:	bf 25 32 40 00       	mov    $0x403225,%edi
  401d35:	e8 f6 ee ff ff       	callq  400c30 <puts@plt>
  401d3a:	b8 00 00 00 00       	mov    $0x0,%eax
  401d3f:	e8 e7 fc ff ff       	callq  401a2b <check_fail>
  401d44:	bf 90 33 40 00       	mov    $0x403390,%edi
  401d49:	e8 e2 ee ff ff       	callq  400c30 <puts@plt>
  401d4e:	bf 2f 32 40 00       	mov    $0x40322f,%edi
  401d53:	e8 d8 ee ff ff       	callq  400c30 <puts@plt>
  401d58:	be 00 00 00 00       	mov    $0x0,%esi
  401d5d:	bf 00 00 00 00       	mov    $0x0,%edi
  401d62:	e8 45 fd ff ff       	callq  401aac <notify_server>
  401d67:	bf 01 00 00 00       	mov    $0x1,%edi
  401d6c:	e8 4f f0 ff ff       	callq  400dc0 <exit@plt>

0000000000401d71 <seghandler>:
  401d71:	48 83 ec 08          	sub    $0x8,%rsp
  401d75:	83 3d 6c 37 20 00 00 	cmpl   $0x0,0x20376c(%rip)        # 6054e8 <is_checker>
  401d7c:	74 14                	je     401d92 <seghandler+0x21>
  401d7e:	bf 45 32 40 00       	mov    $0x403245,%edi
  401d83:	e8 a8 ee ff ff       	callq  400c30 <puts@plt>
  401d88:	b8 00 00 00 00       	mov    $0x0,%eax
  401d8d:	e8 99 fc ff ff       	callq  401a2b <check_fail>
  401d92:	bf b0 33 40 00       	mov    $0x4033b0,%edi
  401d97:	e8 94 ee ff ff       	callq  400c30 <puts@plt>
  401d9c:	bf 2f 32 40 00       	mov    $0x40322f,%edi
  401da1:	e8 8a ee ff ff       	callq  400c30 <puts@plt>
  401da6:	be 00 00 00 00       	mov    $0x0,%esi
  401dab:	bf 00 00 00 00       	mov    $0x0,%edi
  401db0:	e8 f7 fc ff ff       	callq  401aac <notify_server>
  401db5:	bf 01 00 00 00       	mov    $0x1,%edi
  401dba:	e8 01 f0 ff ff       	callq  400dc0 <exit@plt>

0000000000401dbf <illegalhandler>:
  401dbf:	48 83 ec 08          	sub    $0x8,%rsp
  401dc3:	83 3d 1e 37 20 00 00 	cmpl   $0x0,0x20371e(%rip)        # 6054e8 <is_checker>
  401dca:	74 14                	je     401de0 <illegalhandler+0x21>
  401dcc:	bf 58 32 40 00       	mov    $0x403258,%edi
  401dd1:	e8 5a ee ff ff       	callq  400c30 <puts@plt>
  401dd6:	b8 00 00 00 00       	mov    $0x0,%eax
  401ddb:	e8 4b fc ff ff       	callq  401a2b <check_fail>
  401de0:	bf d8 33 40 00       	mov    $0x4033d8,%edi
  401de5:	e8 46 ee ff ff       	callq  400c30 <puts@plt>
  401dea:	bf 2f 32 40 00       	mov    $0x40322f,%edi
  401def:	e8 3c ee ff ff       	callq  400c30 <puts@plt>
  401df4:	be 00 00 00 00       	mov    $0x0,%esi
  401df9:	bf 00 00 00 00       	mov    $0x0,%edi
  401dfe:	e8 a9 fc ff ff       	callq  401aac <notify_server>
  401e03:	bf 01 00 00 00       	mov    $0x1,%edi
  401e08:	e8 b3 ef ff ff       	callq  400dc0 <exit@plt>

0000000000401e0d <sigalrmhandler>:
  401e0d:	48 83 ec 08          	sub    $0x8,%rsp
  401e11:	83 3d d0 36 20 00 00 	cmpl   $0x0,0x2036d0(%rip)        # 6054e8 <is_checker>
  401e18:	74 14                	je     401e2e <sigalrmhandler+0x21>
  401e1a:	bf 6c 32 40 00       	mov    $0x40326c,%edi
  401e1f:	e8 0c ee ff ff       	callq  400c30 <puts@plt>
  401e24:	b8 00 00 00 00       	mov    $0x0,%eax
  401e29:	e8 fd fb ff ff       	callq  401a2b <check_fail>
  401e2e:	be 05 00 00 00       	mov    $0x5,%esi
  401e33:	bf 08 34 40 00       	mov    $0x403408,%edi
  401e38:	b8 00 00 00 00       	mov    $0x0,%eax
  401e3d:	e8 1e ee ff ff       	callq  400c60 <printf@plt>
  401e42:	be 00 00 00 00       	mov    $0x0,%esi
  401e47:	bf 00 00 00 00       	mov    $0x0,%edi
  401e4c:	e8 5b fc ff ff       	callq  401aac <notify_server>
  401e51:	bf 01 00 00 00       	mov    $0x1,%edi
  401e56:	e8 65 ef ff ff       	callq  400dc0 <exit@plt>

0000000000401e5b <launch>:
  401e5b:	55                   	push   %rbp
  401e5c:	48 89 e5             	mov    %rsp,%rbp
  401e5f:	48 89 fa             	mov    %rdi,%rdx
  401e62:	48 8d 47 1e          	lea    0x1e(%rdi),%rax
  401e66:	48 83 e0 f0          	and    $0xfffffffffffffff0,%rax
  401e6a:	48 29 c4             	sub    %rax,%rsp
  401e6d:	48 8d 7c 24 0f       	lea    0xf(%rsp),%rdi
  401e72:	48 83 e7 f0          	and    $0xfffffffffffffff0,%rdi
  401e76:	be f4 00 00 00       	mov    $0xf4,%esi
  401e7b:	e8 f0 ed ff ff       	callq  400c70 <memset@plt>
  401e80:	48 8b 05 19 36 20 00 	mov    0x203619(%rip),%rax        # 6054a0 <stdin@@GLIBC_2.2.5>
  401e87:	48 39 05 42 36 20 00 	cmp    %rax,0x203642(%rip)        # 6054d0 <infile>
  401e8e:	75 0f                	jne    401e9f <launch+0x44>
  401e90:	bf 74 32 40 00       	mov    $0x403274,%edi
  401e95:	b8 00 00 00 00       	mov    $0x0,%eax
  401e9a:	e8 c1 ed ff ff       	callq  400c60 <printf@plt>
  401e9f:	c7 05 33 36 20 00 00 	movl   $0x0,0x203633(%rip)        # 6054dc <vlevel>
  401ea6:	00 00 00 
  401ea9:	b8 00 00 00 00       	mov    $0x0,%eax
  401eae:	e8 c9 f9 ff ff       	callq  40187c <test>
  401eb3:	83 3d 2e 36 20 00 00 	cmpl   $0x0,0x20362e(%rip)        # 6054e8 <is_checker>
  401eba:	74 14                	je     401ed0 <launch+0x75>
  401ebc:	bf 81 32 40 00       	mov    $0x403281,%edi
  401ec1:	e8 6a ed ff ff       	callq  400c30 <puts@plt>
  401ec6:	b8 00 00 00 00       	mov    $0x0,%eax
  401ecb:	e8 5b fb ff ff       	callq  401a2b <check_fail>
  401ed0:	bf 8c 32 40 00       	mov    $0x40328c,%edi
  401ed5:	e8 56 ed ff ff       	callq  400c30 <puts@plt>
  401eda:	c9                   	leaveq 
  401edb:	c3                   	retq   

0000000000401edc <stable_launch>:
  401edc:	53                   	push   %rbx
  401edd:	48 89 3d e4 35 20 00 	mov    %rdi,0x2035e4(%rip)        # 6054c8 <global_offset>
  401ee4:	41 b9 00 00 00 00    	mov    $0x0,%r9d
  401eea:	41 b8 00 00 00 00    	mov    $0x0,%r8d
  401ef0:	b9 32 01 00 00       	mov    $0x132,%ecx
  401ef5:	ba 07 00 00 00       	mov    $0x7,%edx
  401efa:	be 00 00 10 00       	mov    $0x100000,%esi
  401eff:	bf 00 60 58 55       	mov    $0x55586000,%edi
  401f04:	e8 47 ed ff ff       	callq  400c50 <mmap@plt>
  401f09:	48 89 c3             	mov    %rax,%rbx
  401f0c:	48 3d 00 60 58 55    	cmp    $0x55586000,%rax
  401f12:	74 32                	je     401f46 <stable_launch+0x6a>
  401f14:	be 00 00 10 00       	mov    $0x100000,%esi
  401f19:	48 89 c7             	mov    %rax,%rdi
  401f1c:	e8 2f ee ff ff       	callq  400d50 <munmap@plt>
  401f21:	ba 00 60 58 55       	mov    $0x55586000,%edx
  401f26:	be 40 34 40 00       	mov    $0x403440,%esi
  401f2b:	48 8b 3d 7e 35 20 00 	mov    0x20357e(%rip),%rdi        # 6054b0 <stderr@@GLIBC_2.2.5>
  401f32:	b8 00 00 00 00       	mov    $0x0,%eax
  401f37:	e8 a4 ed ff ff       	callq  400ce0 <fprintf@plt>
  401f3c:	bf 01 00 00 00       	mov    $0x1,%edi
  401f41:	e8 7a ee ff ff       	callq  400dc0 <exit@plt>
  401f46:	48 8d 90 f8 ff 0f 00 	lea    0xffff8(%rax),%rdx
  401f4d:	48 89 15 bc 41 20 00 	mov    %rdx,0x2041bc(%rip)        # 606110 <stack_top>
  401f54:	48 89 e0             	mov    %rsp,%rax
  401f57:	48 89 d4             	mov    %rdx,%rsp
  401f5a:	48 89 c2             	mov    %rax,%rdx
  401f5d:	48 89 15 5c 35 20 00 	mov    %rdx,0x20355c(%rip)        # 6054c0 <global_save_stack>
  401f64:	48 8b 3d 5d 35 20 00 	mov    0x20355d(%rip),%rdi        # 6054c8 <global_offset>
  401f6b:	e8 eb fe ff ff       	callq  401e5b <launch>
  401f70:	48 8b 05 49 35 20 00 	mov    0x203549(%rip),%rax        # 6054c0 <global_save_stack>
  401f77:	48 89 c4             	mov    %rax,%rsp
  401f7a:	be 00 00 10 00       	mov    $0x100000,%esi
  401f7f:	48 89 df             	mov    %rbx,%rdi
  401f82:	e8 c9 ed ff ff       	callq  400d50 <munmap@plt>
  401f87:	5b                   	pop    %rbx
  401f88:	c3                   	retq   
  401f89:	0f 1f 80 00 00 00 00 	nopl   0x0(%rax)

0000000000401f90 <rio_readinitb>:
  401f90:	89 37                	mov    %esi,(%rdi)
  401f92:	c7 47 04 00 00 00 00 	movl   $0x0,0x4(%rdi)
  401f99:	48 8d 47 10          	lea    0x10(%rdi),%rax
  401f9d:	48 89 47 08          	mov    %rax,0x8(%rdi)
  401fa1:	c3                   	retq   

0000000000401fa2 <sigalrm_handler>:
  401fa2:	48 83 ec 08          	sub    $0x8,%rsp
  401fa6:	ba 00 00 00 00       	mov    $0x0,%edx
  401fab:	be 80 34 40 00       	mov    $0x403480,%esi
  401fb0:	48 8b 3d f9 34 20 00 	mov    0x2034f9(%rip),%rdi        # 6054b0 <stderr@@GLIBC_2.2.5>
  401fb7:	b8 00 00 00 00       	mov    $0x0,%eax
  401fbc:	e8 1f ed ff ff       	callq  400ce0 <fprintf@plt>
  401fc1:	bf 01 00 00 00       	mov    $0x1,%edi
  401fc6:	e8 f5 ed ff ff       	callq  400dc0 <exit@plt>

0000000000401fcb <urlencode>:
  401fcb:	41 54                	push   %r12
  401fcd:	55                   	push   %rbp
  401fce:	53                   	push   %rbx
  401fcf:	48 83 ec 10          	sub    $0x10,%rsp
  401fd3:	48 89 fb             	mov    %rdi,%rbx
  401fd6:	48 89 f5             	mov    %rsi,%rbp
  401fd9:	b8 00 00 00 00       	mov    $0x0,%eax
  401fde:	48 c7 c1 ff ff ff ff 	mov    $0xffffffffffffffff,%rcx
  401fe5:	f2 ae                	repnz scas %es:(%rdi),%al
  401fe7:	48 f7 d1             	not    %rcx
  401fea:	8d 41 ff             	lea    -0x1(%rcx),%eax
  401fed:	e9 93 00 00 00       	jmpq   402085 <urlencode+0xba>
  401ff2:	0f b6 13             	movzbl (%rbx),%edx
  401ff5:	80 fa 2a             	cmp    $0x2a,%dl
  401ff8:	0f 94 c1             	sete   %cl
  401ffb:	80 fa 2d             	cmp    $0x2d,%dl
  401ffe:	0f 94 c0             	sete   %al
  402001:	08 c1                	or     %al,%cl
  402003:	75 1f                	jne    402024 <urlencode+0x59>
  402005:	80 fa 2e             	cmp    $0x2e,%dl
  402008:	74 1a                	je     402024 <urlencode+0x59>
  40200a:	80 fa 5f             	cmp    $0x5f,%dl
  40200d:	74 15                	je     402024 <urlencode+0x59>
  40200f:	8d 42 d0             	lea    -0x30(%rdx),%eax
  402012:	3c 09                	cmp    $0x9,%al
  402014:	76 0e                	jbe    402024 <urlencode+0x59>
  402016:	8d 42 bf             	lea    -0x41(%rdx),%eax
  402019:	3c 19                	cmp    $0x19,%al
  40201b:	76 07                	jbe    402024 <urlencode+0x59>
  40201d:	8d 42 9f             	lea    -0x61(%rdx),%eax
  402020:	3c 19                	cmp    $0x19,%al
  402022:	77 09                	ja     40202d <urlencode+0x62>
  402024:	88 55 00             	mov    %dl,0x0(%rbp)
  402027:	48 8d 6d 01          	lea    0x1(%rbp),%rbp
  40202b:	eb 51                	jmp    40207e <urlencode+0xb3>
  40202d:	80 fa 20             	cmp    $0x20,%dl
  402030:	75 0a                	jne    40203c <urlencode+0x71>
  402032:	c6 45 00 2b          	movb   $0x2b,0x0(%rbp)
  402036:	48 8d 6d 01          	lea    0x1(%rbp),%rbp
  40203a:	eb 42                	jmp    40207e <urlencode+0xb3>
  40203c:	8d 42 e0             	lea    -0x20(%rdx),%eax
  40203f:	3c 5f                	cmp    $0x5f,%al
  402041:	0f 96 c1             	setbe  %cl
  402044:	80 fa 09             	cmp    $0x9,%dl
  402047:	0f 94 c0             	sete   %al
  40204a:	08 c1                	or     %al,%cl
  40204c:	74 45                	je     402093 <urlencode+0xc8>
  40204e:	0f b6 d2             	movzbl %dl,%edx
  402051:	be 18 35 40 00       	mov    $0x403518,%esi
  402056:	48 89 e7             	mov    %rsp,%rdi
  402059:	b8 00 00 00 00       	mov    $0x0,%eax
  40205e:	e8 4d ed ff ff       	callq  400db0 <sprintf@plt>
  402063:	0f b6 04 24          	movzbl (%rsp),%eax
  402067:	88 45 00             	mov    %al,0x0(%rbp)
  40206a:	0f b6 44 24 01       	movzbl 0x1(%rsp),%eax
  40206f:	88 45 01             	mov    %al,0x1(%rbp)
  402072:	0f b6 44 24 02       	movzbl 0x2(%rsp),%eax
  402077:	88 45 02             	mov    %al,0x2(%rbp)
  40207a:	48 8d 6d 03          	lea    0x3(%rbp),%rbp
  40207e:	48 83 c3 01          	add    $0x1,%rbx
  402082:	44 89 e0             	mov    %r12d,%eax
  402085:	44 8d 60 ff          	lea    -0x1(%rax),%r12d
  402089:	85 c0                	test   %eax,%eax
  40208b:	0f 85 61 ff ff ff    	jne    401ff2 <urlencode+0x27>
  402091:	eb 05                	jmp    402098 <urlencode+0xcd>
  402093:	b8 ff ff ff ff       	mov    $0xffffffff,%eax
  402098:	48 83 c4 10          	add    $0x10,%rsp
  40209c:	5b                   	pop    %rbx
  40209d:	5d                   	pop    %rbp
  40209e:	41 5c                	pop    %r12
  4020a0:	c3                   	retq   

00000000004020a1 <rio_writen>:
  4020a1:	41 55                	push   %r13
  4020a3:	41 54                	push   %r12
  4020a5:	55                   	push   %rbp
  4020a6:	53                   	push   %rbx
  4020a7:	48 83 ec 08          	sub    $0x8,%rsp
  4020ab:	41 89 fc             	mov    %edi,%r12d
  4020ae:	48 89 f5             	mov    %rsi,%rbp
  4020b1:	49 89 d5             	mov    %rdx,%r13
  4020b4:	48 89 d3             	mov    %rdx,%rbx
  4020b7:	eb 28                	jmp    4020e1 <rio_writen+0x40>
  4020b9:	48 89 da             	mov    %rbx,%rdx
  4020bc:	48 89 ee             	mov    %rbp,%rsi
  4020bf:	44 89 e7             	mov    %r12d,%edi
  4020c2:	e8 79 eb ff ff       	callq  400c40 <write@plt>
  4020c7:	48 85 c0             	test   %rax,%rax
  4020ca:	7f 0f                	jg     4020db <rio_writen+0x3a>
  4020cc:	e8 1f eb ff ff       	callq  400bf0 <__errno_location@plt>
  4020d1:	83 38 04             	cmpl   $0x4,(%rax)
  4020d4:	75 15                	jne    4020eb <rio_writen+0x4a>
  4020d6:	b8 00 00 00 00       	mov    $0x0,%eax
  4020db:	48 29 c3             	sub    %rax,%rbx
  4020de:	48 01 c5             	add    %rax,%rbp
  4020e1:	48 85 db             	test   %rbx,%rbx
  4020e4:	75 d3                	jne    4020b9 <rio_writen+0x18>
  4020e6:	4c 89 e8             	mov    %r13,%rax
  4020e9:	eb 07                	jmp    4020f2 <rio_writen+0x51>
  4020eb:	48 c7 c0 ff ff ff ff 	mov    $0xffffffffffffffff,%rax
  4020f2:	48 83 c4 08          	add    $0x8,%rsp
  4020f6:	5b                   	pop    %rbx
  4020f7:	5d                   	pop    %rbp
  4020f8:	41 5c                	pop    %r12
  4020fa:	41 5d                	pop    %r13
  4020fc:	c3                   	retq   

00000000004020fd <rio_read>:
  4020fd:	41 56                	push   %r14
  4020ff:	41 55                	push   %r13
  402101:	41 54                	push   %r12
  402103:	55                   	push   %rbp
  402104:	53                   	push   %rbx
  402105:	48 89 fb             	mov    %rdi,%rbx
  402108:	49 89 f6             	mov    %rsi,%r14
  40210b:	49 89 d5             	mov    %rdx,%r13
  40210e:	4c 8d 67 10          	lea    0x10(%rdi),%r12
  402112:	eb 2a                	jmp    40213e <rio_read+0x41>
  402114:	ba 00 20 00 00       	mov    $0x2000,%edx
  402119:	4c 89 e6             	mov    %r12,%rsi
  40211c:	8b 3b                	mov    (%rbx),%edi
  40211e:	e8 7d eb ff ff       	callq  400ca0 <read@plt>
  402123:	89 43 04             	mov    %eax,0x4(%rbx)
  402126:	85 c0                	test   %eax,%eax
  402128:	79 0c                	jns    402136 <rio_read+0x39>
  40212a:	e8 c1 ea ff ff       	callq  400bf0 <__errno_location@plt>
  40212f:	83 38 04             	cmpl   $0x4,(%rax)
  402132:	74 0a                	je     40213e <rio_read+0x41>
  402134:	eb 37                	jmp    40216d <rio_read+0x70>
  402136:	85 c0                	test   %eax,%eax
  402138:	74 3c                	je     402176 <rio_read+0x79>
  40213a:	4c 89 63 08          	mov    %r12,0x8(%rbx)
  40213e:	8b 6b 04             	mov    0x4(%rbx),%ebp
  402141:	85 ed                	test   %ebp,%ebp
  402143:	7e cf                	jle    402114 <rio_read+0x17>
  402145:	89 e8                	mov    %ebp,%eax
  402147:	4c 39 e8             	cmp    %r13,%rax
  40214a:	72 03                	jb     40214f <rio_read+0x52>
  40214c:	44 89 ed             	mov    %r13d,%ebp
  40214f:	4c 63 e5             	movslq %ebp,%r12
  402152:	48 8b 73 08          	mov    0x8(%rbx),%rsi
  402156:	4c 89 e2             	mov    %r12,%rdx
  402159:	4c 89 f7             	mov    %r14,%rdi
  40215c:	e8 9f eb ff ff       	callq  400d00 <memcpy@plt>
  402161:	4c 01 63 08          	add    %r12,0x8(%rbx)
  402165:	29 6b 04             	sub    %ebp,0x4(%rbx)
  402168:	4c 89 e0             	mov    %r12,%rax
  40216b:	eb 0e                	jmp    40217b <rio_read+0x7e>
  40216d:	48 c7 c0 ff ff ff ff 	mov    $0xffffffffffffffff,%rax
  402174:	eb 05                	jmp    40217b <rio_read+0x7e>
  402176:	b8 00 00 00 00       	mov    $0x0,%eax
  40217b:	5b                   	pop    %rbx
  40217c:	5d                   	pop    %rbp
  40217d:	41 5c                	pop    %r12
  40217f:	41 5d                	pop    %r13
  402181:	41 5e                	pop    %r14
  402183:	c3                   	retq   

0000000000402184 <rio_readlineb>:
  402184:	41 55                	push   %r13
  402186:	41 54                	push   %r12
  402188:	55                   	push   %rbp
  402189:	53                   	push   %rbx
  40218a:	48 83 ec 18          	sub    $0x18,%rsp
  40218e:	49 89 fd             	mov    %rdi,%r13
  402191:	48 89 f5             	mov    %rsi,%rbp
  402194:	49 89 d4             	mov    %rdx,%r12
  402197:	bb 01 00 00 00       	mov    $0x1,%ebx
  40219c:	eb 3d                	jmp    4021db <rio_readlineb+0x57>
  40219e:	ba 01 00 00 00       	mov    $0x1,%edx
  4021a3:	48 8d 74 24 0f       	lea    0xf(%rsp),%rsi
  4021a8:	4c 89 ef             	mov    %r13,%rdi
  4021ab:	e8 4d ff ff ff       	callq  4020fd <rio_read>
  4021b0:	83 f8 01             	cmp    $0x1,%eax
  4021b3:	75 12                	jne    4021c7 <rio_readlineb+0x43>
  4021b5:	48 8d 55 01          	lea    0x1(%rbp),%rdx
  4021b9:	0f b6 44 24 0f       	movzbl 0xf(%rsp),%eax
  4021be:	88 45 00             	mov    %al,0x0(%rbp)
  4021c1:	3c 0a                	cmp    $0xa,%al
  4021c3:	75 0f                	jne    4021d4 <rio_readlineb+0x50>
  4021c5:	eb 1b                	jmp    4021e2 <rio_readlineb+0x5e>
  4021c7:	85 c0                	test   %eax,%eax
  4021c9:	75 23                	jne    4021ee <rio_readlineb+0x6a>
  4021cb:	48 83 fb 01          	cmp    $0x1,%rbx
  4021cf:	90                   	nop
  4021d0:	75 13                	jne    4021e5 <rio_readlineb+0x61>
  4021d2:	eb 23                	jmp    4021f7 <rio_readlineb+0x73>
  4021d4:	48 83 c3 01          	add    $0x1,%rbx
  4021d8:	48 89 d5             	mov    %rdx,%rbp
  4021db:	4c 39 e3             	cmp    %r12,%rbx
  4021de:	72 be                	jb     40219e <rio_readlineb+0x1a>
  4021e0:	eb 03                	jmp    4021e5 <rio_readlineb+0x61>
  4021e2:	48 89 d5             	mov    %rdx,%rbp
  4021e5:	c6 45 00 00          	movb   $0x0,0x0(%rbp)
  4021e9:	48 89 d8             	mov    %rbx,%rax
  4021ec:	eb 0e                	jmp    4021fc <rio_readlineb+0x78>
  4021ee:	48 c7 c0 ff ff ff ff 	mov    $0xffffffffffffffff,%rax
  4021f5:	eb 05                	jmp    4021fc <rio_readlineb+0x78>
  4021f7:	b8 00 00 00 00       	mov    $0x0,%eax
  4021fc:	48 83 c4 18          	add    $0x18,%rsp
  402200:	5b                   	pop    %rbx
  402201:	5d                   	pop    %rbp
  402202:	41 5c                	pop    %r12
  402204:	41 5d                	pop    %r13
  402206:	c3                   	retq   

0000000000402207 <submitr>:
  402207:	41 57                	push   %r15
  402209:	41 56                	push   %r14
  40220b:	41 55                	push   %r13
  40220d:	41 54                	push   %r12
  40220f:	55                   	push   %rbp
  402210:	53                   	push   %rbx
  402211:	48 81 ec 48 a0 00 00 	sub    $0xa048,%rsp
  402218:	49 89 fc             	mov    %rdi,%r12
  40221b:	89 74 24 04          	mov    %esi,0x4(%rsp)
  40221f:	49 89 d7             	mov    %rdx,%r15
  402222:	49 89 ce             	mov    %rcx,%r14
  402225:	4c 89 44 24 08       	mov    %r8,0x8(%rsp)
  40222a:	4d 89 cd             	mov    %r9,%r13
  40222d:	48 8b 9c 24 80 a0 00 	mov    0xa080(%rsp),%rbx
  402234:	00 
  402235:	c7 84 24 1c 20 00 00 	movl   $0x0,0x201c(%rsp)
  40223c:	00 00 00 00 
  402240:	ba 00 00 00 00       	mov    $0x0,%edx
  402245:	be 01 00 00 00       	mov    $0x1,%esi
  40224a:	bf 02 00 00 00       	mov    $0x2,%edi
  40224f:	e8 8c eb ff ff       	callq  400de0 <socket@plt>
  402254:	89 c5                	mov    %eax,%ebp
  402256:	85 c0                	test   %eax,%eax
  402258:	79 4e                	jns    4022a8 <submitr+0xa1>
  40225a:	48 b8 45 72 72 6f 72 	movabs $0x43203a726f727245,%rax
  402261:	3a 20 43 
  402264:	48 89 03             	mov    %rax,(%rbx)
  402267:	48 b8 6c 69 65 6e 74 	movabs $0x6e7520746e65696c,%rax
  40226e:	20 75 6e 
  402271:	48 89 43 08          	mov    %rax,0x8(%rbx)
  402275:	48 b8 61 62 6c 65 20 	movabs $0x206f7420656c6261,%rax
  40227c:	74 6f 20 
  40227f:	48 89 43 10          	mov    %rax,0x10(%rbx)
  402283:	48 b8 63 72 65 61 74 	movabs $0x7320657461657263,%rax
  40228a:	65 20 73 
  40228d:	48 89 43 18          	mov    %rax,0x18(%rbx)
  402291:	c7 43 20 6f 63 6b 65 	movl   $0x656b636f,0x20(%rbx)
  402298:	66 c7 43 24 74 00    	movw   $0x74,0x24(%rbx)
  40229e:	b8 ff ff ff ff       	mov    $0xffffffff,%eax
  4022a3:	e9 68 06 00 00       	jmpq   402910 <submitr+0x709>
  4022a8:	4c 89 e7             	mov    %r12,%rdi
  4022ab:	e8 20 ea ff ff       	callq  400cd0 <gethostbyname@plt>
  4022b0:	48 85 c0             	test   %rax,%rax
  4022b3:	75 67                	jne    40231c <submitr+0x115>
  4022b5:	48 b8 45 72 72 6f 72 	movabs $0x44203a726f727245,%rax
  4022bc:	3a 20 44 
  4022bf:	48 89 03             	mov    %rax,(%rbx)
  4022c2:	48 b8 4e 53 20 69 73 	movabs $0x6e7520736920534e,%rax
  4022c9:	20 75 6e 
  4022cc:	48 89 43 08          	mov    %rax,0x8(%rbx)
  4022d0:	48 b8 61 62 6c 65 20 	movabs $0x206f7420656c6261,%rax
  4022d7:	74 6f 20 
  4022da:	48 89 43 10          	mov    %rax,0x10(%rbx)
  4022de:	48 b8 72 65 73 6f 6c 	movabs $0x2065766c6f736572,%rax
  4022e5:	76 65 20 
  4022e8:	48 89 43 18          	mov    %rax,0x18(%rbx)
  4022ec:	48 b8 73 65 72 76 65 	movabs $0x6120726576726573,%rax
  4022f3:	72 20 61 
  4022f6:	48 89 43 20          	mov    %rax,0x20(%rbx)
  4022fa:	c7 43 28 64 64 72 65 	movl   $0x65726464,0x28(%rbx)
  402301:	66 c7 43 2c 73 73    	movw   $0x7373,0x2c(%rbx)
  402307:	c6 43 2e 00          	movb   $0x0,0x2e(%rbx)
  40230b:	89 ef                	mov    %ebp,%edi
  40230d:	e8 7e e9 ff ff       	callq  400c90 <close@plt>
  402312:	b8 ff ff ff ff       	mov    $0xffffffff,%eax
  402317:	e9 f4 05 00 00       	jmpq   402910 <submitr+0x709>
  40231c:	48 c7 84 24 30 a0 00 	movq   $0x0,0xa030(%rsp)
  402323:	00 00 00 00 00 
  402328:	48 c7 84 24 38 a0 00 	movq   $0x0,0xa038(%rsp)
  40232f:	00 00 00 00 00 
  402334:	66 c7 84 24 30 a0 00 	movw   $0x2,0xa030(%rsp)
  40233b:	00 02 00 
  40233e:	48 8b 48 18          	mov    0x18(%rax),%rcx
  402342:	48 63 50 14          	movslq 0x14(%rax),%rdx
  402346:	48 8d b4 24 34 a0 00 	lea    0xa034(%rsp),%rsi
  40234d:	00 
  40234e:	48 8b 39             	mov    (%rcx),%rdi
  402351:	e8 0a ea ff ff       	callq  400d60 <bcopy@plt>
  402356:	0f b7 44 24 04       	movzwl 0x4(%rsp),%eax
  40235b:	66 c1 c8 08          	ror    $0x8,%ax
  40235f:	66 89 84 24 32 a0 00 	mov    %ax,0xa032(%rsp)
  402366:	00 
  402367:	ba 10 00 00 00       	mov    $0x10,%edx
  40236c:	48 8d b4 24 30 a0 00 	lea    0xa030(%rsp),%rsi
  402373:	00 
  402374:	89 ef                	mov    %ebp,%edi
  402376:	e8 55 ea ff ff       	callq  400dd0 <connect@plt>
  40237b:	85 c0                	test   %eax,%eax
  40237d:	79 59                	jns    4023d8 <submitr+0x1d1>
  40237f:	48 b8 45 72 72 6f 72 	movabs $0x55203a726f727245,%rax
  402386:	3a 20 55 
  402389:	48 89 03             	mov    %rax,(%rbx)
  40238c:	48 b8 6e 61 62 6c 65 	movabs $0x6f7420656c62616e,%rax
  402393:	20 74 6f 
  402396:	48 89 43 08          	mov    %rax,0x8(%rbx)
  40239a:	48 b8 20 63 6f 6e 6e 	movabs $0x7463656e6e6f6320,%rax
  4023a1:	65 63 74 
  4023a4:	48 89 43 10          	mov    %rax,0x10(%rbx)
  4023a8:	48 b8 20 74 6f 20 74 	movabs $0x20656874206f7420,%rax
  4023af:	68 65 20 
  4023b2:	48 89 43 18          	mov    %rax,0x18(%rbx)
  4023b6:	c7 43 20 73 65 72 76 	movl   $0x76726573,0x20(%rbx)
  4023bd:	66 c7 43 24 65 72    	movw   $0x7265,0x24(%rbx)
  4023c3:	c6 43 26 00          	movb   $0x0,0x26(%rbx)
  4023c7:	89 ef                	mov    %ebp,%edi
  4023c9:	e8 c2 e8 ff ff       	callq  400c90 <close@plt>
  4023ce:	b8 ff ff ff ff       	mov    $0xffffffff,%eax
  4023d3:	e9 38 05 00 00       	jmpq   402910 <submitr+0x709>
  4023d8:	48 c7 c2 ff ff ff ff 	mov    $0xffffffffffffffff,%rdx
  4023df:	4c 89 ef             	mov    %r13,%rdi
  4023e2:	b8 00 00 00 00       	mov    $0x0,%eax
  4023e7:	48 89 d1             	mov    %rdx,%rcx
  4023ea:	f2 ae                	repnz scas %es:(%rdi),%al
  4023ec:	48 f7 d1             	not    %rcx
  4023ef:	48 89 ce             	mov    %rcx,%rsi
  4023f2:	4c 89 ff             	mov    %r15,%rdi
  4023f5:	48 89 d1             	mov    %rdx,%rcx
  4023f8:	f2 ae                	repnz scas %es:(%rdi),%al
  4023fa:	48 f7 d1             	not    %rcx
  4023fd:	49 89 c8             	mov    %rcx,%r8
  402400:	4c 89 f7             	mov    %r14,%rdi
  402403:	48 89 d1             	mov    %rdx,%rcx
  402406:	f2 ae                	repnz scas %es:(%rdi),%al
  402408:	49 29 c8             	sub    %rcx,%r8
  40240b:	48 8b 7c 24 08       	mov    0x8(%rsp),%rdi
  402410:	48 89 d1             	mov    %rdx,%rcx
  402413:	f2 ae                	repnz scas %es:(%rdi),%al
  402415:	49 29 c8             	sub    %rcx,%r8
  402418:	48 8d 44 76 fd       	lea    -0x3(%rsi,%rsi,2),%rax
  40241d:	49 8d 44 00 7b       	lea    0x7b(%r8,%rax,1),%rax
  402422:	48 3d 00 20 00 00    	cmp    $0x2000,%rax
  402428:	76 72                	jbe    40249c <submitr+0x295>
  40242a:	48 b8 45 72 72 6f 72 	movabs $0x52203a726f727245,%rax
  402431:	3a 20 52 
  402434:	48 89 03             	mov    %rax,(%rbx)
  402437:	48 b8 65 73 75 6c 74 	movabs $0x747320746c757365,%rax
  40243e:	20 73 74 
  402441:	48 89 43 08          	mov    %rax,0x8(%rbx)
  402445:	48 b8 72 69 6e 67 20 	movabs $0x6f6f7420676e6972,%rax
  40244c:	74 6f 6f 
  40244f:	48 89 43 10          	mov    %rax,0x10(%rbx)
  402453:	48 b8 20 6c 61 72 67 	movabs $0x202e656772616c20,%rax
  40245a:	65 2e 20 
  40245d:	48 89 43 18          	mov    %rax,0x18(%rbx)
  402461:	48 b8 49 6e 63 72 65 	movabs $0x6573616572636e49,%rax
  402468:	61 73 65 
  40246b:	48 89 43 20          	mov    %rax,0x20(%rbx)
  40246f:	48 b8 20 53 55 42 4d 	movabs $0x5254494d42555320,%rax
  402476:	49 54 52 
  402479:	48 89 43 28          	mov    %rax,0x28(%rbx)
  40247d:	48 b8 5f 4d 41 58 42 	movabs $0x46554258414d5f,%rax
  402484:	55 46 00 
  402487:	48 89 43 30          	mov    %rax,0x30(%rbx)
  40248b:	89 ef                	mov    %ebp,%edi
  40248d:	e8 fe e7 ff ff       	callq  400c90 <close@plt>
  402492:	b8 ff ff ff ff       	mov    $0xffffffff,%eax
  402497:	e9 74 04 00 00       	jmpq   402910 <submitr+0x709>
  40249c:	48 8d b4 24 20 40 00 	lea    0x4020(%rsp),%rsi
  4024a3:	00 
  4024a4:	b9 00 04 00 00       	mov    $0x400,%ecx
  4024a9:	b8 00 00 00 00       	mov    $0x0,%eax
  4024ae:	48 89 f7             	mov    %rsi,%rdi
  4024b1:	f3 48 ab             	rep stos %rax,%es:(%rdi)
  4024b4:	4c 89 ef             	mov    %r13,%rdi
  4024b7:	e8 0f fb ff ff       	callq  401fcb <urlencode>
  4024bc:	85 c0                	test   %eax,%eax
  4024be:	0f 89 8a 00 00 00    	jns    40254e <submitr+0x347>
  4024c4:	48 b8 45 72 72 6f 72 	movabs $0x52203a726f727245,%rax
  4024cb:	3a 20 52 
  4024ce:	48 89 03             	mov    %rax,(%rbx)
  4024d1:	48 b8 65 73 75 6c 74 	movabs $0x747320746c757365,%rax
  4024d8:	20 73 74 
  4024db:	48 89 43 08          	mov    %rax,0x8(%rbx)
  4024df:	48 b8 72 69 6e 67 20 	movabs $0x6e6f6320676e6972,%rax
  4024e6:	63 6f 6e 
  4024e9:	48 89 43 10          	mov    %rax,0x10(%rbx)
  4024ed:	48 b8 74 61 69 6e 73 	movabs $0x6e6120736e696174,%rax
  4024f4:	20 61 6e 
  4024f7:	48 89 43 18          	mov    %rax,0x18(%rbx)
  4024fb:	48 b8 20 69 6c 6c 65 	movabs $0x6c6167656c6c6920,%rax
  402502:	67 61 6c 
  402505:	48 89 43 20          	mov    %rax,0x20(%rbx)
  402509:	48 b8 20 6f 72 20 75 	movabs $0x72706e7520726f20,%rax
  402510:	6e 70 72 
  402513:	48 89 43 28          	mov    %rax,0x28(%rbx)
  402517:	48 b8 69 6e 74 61 62 	movabs $0x20656c6261746e69,%rax
  40251e:	6c 65 20 
  402521:	48 89 43 30          	mov    %rax,0x30(%rbx)
  402525:	48 b8 63 68 61 72 61 	movabs $0x6574636172616863,%rax
  40252c:	63 74 65 
  40252f:	48 89 43 38          	mov    %rax,0x38(%rbx)
  402533:	66 c7 43 40 72 2e    	movw   $0x2e72,0x40(%rbx)
  402539:	c6 43 42 00          	movb   $0x0,0x42(%rbx)
  40253d:	89 ef                	mov    %ebp,%edi
  40253f:	e8 4c e7 ff ff       	callq  400c90 <close@plt>
  402544:	b8 ff ff ff ff       	mov    $0xffffffff,%eax
  402549:	e9 c2 03 00 00       	jmpq   402910 <submitr+0x709>
  40254e:	4d 89 e1             	mov    %r12,%r9
  402551:	4c 8d 84 24 20 40 00 	lea    0x4020(%rsp),%r8
  402558:	00 
  402559:	4c 89 f9             	mov    %r15,%rcx
  40255c:	4c 89 f2             	mov    %r14,%rdx
  40255f:	be a8 34 40 00       	mov    $0x4034a8,%esi
  402564:	48 8d bc 24 20 60 00 	lea    0x6020(%rsp),%rdi
  40256b:	00 
  40256c:	b8 00 00 00 00       	mov    $0x0,%eax
  402571:	e8 3a e8 ff ff       	callq  400db0 <sprintf@plt>
  402576:	48 8d bc 24 20 60 00 	lea    0x6020(%rsp),%rdi
  40257d:	00 
  40257e:	b8 00 00 00 00       	mov    $0x0,%eax
  402583:	48 c7 c1 ff ff ff ff 	mov    $0xffffffffffffffff,%rcx
  40258a:	f2 ae                	repnz scas %es:(%rdi),%al
  40258c:	48 f7 d1             	not    %rcx
  40258f:	48 8d 51 ff          	lea    -0x1(%rcx),%rdx
  402593:	48 8d b4 24 20 60 00 	lea    0x6020(%rsp),%rsi
  40259a:	00 
  40259b:	89 ef                	mov    %ebp,%edi
  40259d:	e8 ff fa ff ff       	callq  4020a1 <rio_writen>
  4025a2:	48 85 c0             	test   %rax,%rax
  4025a5:	79 6e                	jns    402615 <submitr+0x40e>
  4025a7:	48 b8 45 72 72 6f 72 	movabs $0x43203a726f727245,%rax
  4025ae:	3a 20 43 
  4025b1:	48 89 03             	mov    %rax,(%rbx)
  4025b4:	48 b8 6c 69 65 6e 74 	movabs $0x6e7520746e65696c,%rax
  4025bb:	20 75 6e 
  4025be:	48 89 43 08          	mov    %rax,0x8(%rbx)
  4025c2:	48 b8 61 62 6c 65 20 	movabs $0x206f7420656c6261,%rax
  4025c9:	74 6f 20 
  4025cc:	48 89 43 10          	mov    %rax,0x10(%rbx)
  4025d0:	48 b8 77 72 69 74 65 	movabs $0x6f74206574697277,%rax
  4025d7:	20 74 6f 
  4025da:	48 89 43 18          	mov    %rax,0x18(%rbx)
  4025de:	48 b8 20 74 68 65 20 	movabs $0x7365722065687420,%rax
  4025e5:	72 65 73 
  4025e8:	48 89 43 20          	mov    %rax,0x20(%rbx)
  4025ec:	48 b8 75 6c 74 20 73 	movabs $0x7672657320746c75,%rax
  4025f3:	65 72 76 
  4025f6:	48 89 43 28          	mov    %rax,0x28(%rbx)
  4025fa:	66 c7 43 30 65 72    	movw   $0x7265,0x30(%rbx)
  402600:	c6 43 32 00          	movb   $0x0,0x32(%rbx)
  402604:	89 ef                	mov    %ebp,%edi
  402606:	e8 85 e6 ff ff       	callq  400c90 <close@plt>
  40260b:	b8 ff ff ff ff       	mov    $0xffffffff,%eax
  402610:	e9 fb 02 00 00       	jmpq   402910 <submitr+0x709>
  402615:	89 ee                	mov    %ebp,%esi
  402617:	48 8d bc 24 20 80 00 	lea    0x8020(%rsp),%rdi
  40261e:	00 
  40261f:	e8 6c f9 ff ff       	callq  401f90 <rio_readinitb>
  402624:	ba 00 20 00 00       	mov    $0x2000,%edx
  402629:	48 8d b4 24 20 60 00 	lea    0x6020(%rsp),%rsi
  402630:	00 
  402631:	48 8d bc 24 20 80 00 	lea    0x8020(%rsp),%rdi
  402638:	00 
  402639:	e8 46 fb ff ff       	callq  402184 <rio_readlineb>
  40263e:	48 85 c0             	test   %rax,%rax
  402641:	7f 7d                	jg     4026c0 <submitr+0x4b9>
  402643:	48 b8 45 72 72 6f 72 	movabs $0x43203a726f727245,%rax
  40264a:	3a 20 43 
  40264d:	48 89 03             	mov    %rax,(%rbx)
  402650:	48 b8 6c 69 65 6e 74 	movabs $0x6e7520746e65696c,%rax
  402657:	20 75 6e 
  40265a:	48 89 43 08          	mov    %rax,0x8(%rbx)
  40265e:	48 b8 61 62 6c 65 20 	movabs $0x206f7420656c6261,%rax
  402665:	74 6f 20 
  402668:	48 89 43 10          	mov    %rax,0x10(%rbx)
  40266c:	48 b8 72 65 61 64 20 	movabs $0x7269662064616572,%rax
  402673:	66 69 72 
  402676:	48 89 43 18          	mov    %rax,0x18(%rbx)
  40267a:	48 b8 73 74 20 68 65 	movabs $0x6564616568207473,%rax
  402681:	61 64 65 
  402684:	48 89 43 20          	mov    %rax,0x20(%rbx)
  402688:	48 b8 72 20 66 72 6f 	movabs $0x72206d6f72662072,%rax
  40268f:	6d 20 72 
  402692:	48 89 43 28          	mov    %rax,0x28(%rbx)
  402696:	48 b8 65 73 75 6c 74 	movabs $0x657320746c757365,%rax
  40269d:	20 73 65 
  4026a0:	48 89 43 30          	mov    %rax,0x30(%rbx)
  4026a4:	c7 43 38 72 76 65 72 	movl   $0x72657672,0x38(%rbx)
  4026ab:	c6 43 3c 00          	movb   $0x0,0x3c(%rbx)
  4026af:	89 ef                	mov    %ebp,%edi
  4026b1:	e8 da e5 ff ff       	callq  400c90 <close@plt>
  4026b6:	b8 ff ff ff ff       	mov    $0xffffffff,%eax
  4026bb:	e9 50 02 00 00       	jmpq   402910 <submitr+0x709>
  4026c0:	4c 8d 44 24 10       	lea    0x10(%rsp),%r8
  4026c5:	48 8d 8c 24 1c 20 00 	lea    0x201c(%rsp),%rcx
  4026cc:	00 
  4026cd:	48 8d 94 24 20 20 00 	lea    0x2020(%rsp),%rdx
  4026d4:	00 
  4026d5:	be 1f 35 40 00       	mov    $0x40351f,%esi
  4026da:	48 8d bc 24 20 60 00 	lea    0x6020(%rsp),%rdi
  4026e1:	00 
  4026e2:	b8 00 00 00 00       	mov    $0x0,%eax
  4026e7:	e8 54 e6 ff ff       	callq  400d40 <__isoc99_sscanf@plt>
  4026ec:	e9 98 00 00 00       	jmpq   402789 <submitr+0x582>
  4026f1:	ba 00 20 00 00       	mov    $0x2000,%edx
  4026f6:	48 8d b4 24 20 60 00 	lea    0x6020(%rsp),%rsi
  4026fd:	00 
  4026fe:	48 8d bc 24 20 80 00 	lea    0x8020(%rsp),%rdi
  402705:	00 
  402706:	e8 79 fa ff ff       	callq  402184 <rio_readlineb>
  40270b:	48 85 c0             	test   %rax,%rax
  40270e:	7f 79                	jg     402789 <submitr+0x582>
  402710:	48 b8 45 72 72 6f 72 	movabs $0x43203a726f727245,%rax
  402717:	3a 20 43 
  40271a:	48 89 03             	mov    %rax,(%rbx)
  40271d:	48 b8 6c 69 65 6e 74 	movabs $0x6e7520746e65696c,%rax
  402724:	20 75 6e 
  402727:	48 89 43 08          	mov    %rax,0x8(%rbx)
  40272b:	48 b8 61 62 6c 65 20 	movabs $0x206f7420656c6261,%rax
  402732:	74 6f 20 
  402735:	48 89 43 10          	mov    %rax,0x10(%rbx)
  402739:	48 b8 72 65 61 64 20 	movabs $0x6165682064616572,%rax
  402740:	68 65 61 
  402743:	48 89 43 18          	mov    %rax,0x18(%rbx)
  402747:	48 b8 64 65 72 73 20 	movabs $0x6f72662073726564,%rax
  40274e:	66 72 6f 
  402751:	48 89 43 20          	mov    %rax,0x20(%rbx)
  402755:	48 b8 6d 20 74 68 65 	movabs $0x657220656874206d,%rax
  40275c:	20 72 65 
  40275f:	48 89 43 28          	mov    %rax,0x28(%rbx)
  402763:	48 b8 73 75 6c 74 20 	movabs $0x72657320746c7573,%rax
  40276a:	73 65 72 
  40276d:	48 89 43 30          	mov    %rax,0x30(%rbx)
  402771:	c7 43 38 76 65 72 00 	movl   $0x726576,0x38(%rbx)
  402778:	89 ef                	mov    %ebp,%edi
  40277a:	e8 11 e5 ff ff       	callq  400c90 <close@plt>
  40277f:	b8 ff ff ff ff       	mov    $0xffffffff,%eax
  402784:	e9 87 01 00 00       	jmpq   402910 <submitr+0x709>
  402789:	0f b6 84 24 20 60 00 	movzbl 0x6020(%rsp),%eax
  402790:	00 
  402791:	83 e8 0d             	sub    $0xd,%eax
  402794:	75 15                	jne    4027ab <submitr+0x5a4>
  402796:	0f b6 84 24 21 60 00 	movzbl 0x6021(%rsp),%eax
  40279d:	00 
  40279e:	83 e8 0a             	sub    $0xa,%eax
  4027a1:	75 08                	jne    4027ab <submitr+0x5a4>
  4027a3:	0f b6 84 24 22 60 00 	movzbl 0x6022(%rsp),%eax
  4027aa:	00 
  4027ab:	85 c0                	test   %eax,%eax
  4027ad:	0f 85 3e ff ff ff    	jne    4026f1 <submitr+0x4ea>
  4027b3:	ba 00 20 00 00       	mov    $0x2000,%edx
  4027b8:	48 8d b4 24 20 60 00 	lea    0x6020(%rsp),%rsi
  4027bf:	00 
  4027c0:	48 8d bc 24 20 80 00 	lea    0x8020(%rsp),%rdi
  4027c7:	00 
  4027c8:	e8 b7 f9 ff ff       	callq  402184 <rio_readlineb>
  4027cd:	48 85 c0             	test   %rax,%rax
  4027d0:	0f 8f 83 00 00 00    	jg     402859 <submitr+0x652>
  4027d6:	48 b8 45 72 72 6f 72 	movabs $0x43203a726f727245,%rax
  4027dd:	3a 20 43 
  4027e0:	48 89 03             	mov    %rax,(%rbx)
  4027e3:	48 b8 6c 69 65 6e 74 	movabs $0x6e7520746e65696c,%rax
  4027ea:	20 75 6e 
  4027ed:	48 89 43 08          	mov    %rax,0x8(%rbx)
  4027f1:	48 b8 61 62 6c 65 20 	movabs $0x206f7420656c6261,%rax
  4027f8:	74 6f 20 
  4027fb:	48 89 43 10          	mov    %rax,0x10(%rbx)
  4027ff:	48 b8 72 65 61 64 20 	movabs $0x6174732064616572,%rax
  402806:	73 74 61 
  402809:	48 89 43 18          	mov    %rax,0x18(%rbx)
  40280d:	48 b8 74 75 73 20 6d 	movabs $0x7373656d20737574,%rax
  402814:	65 73 73 
  402817:	48 89 43 20          	mov    %rax,0x20(%rbx)
  40281b:	48 b8 61 67 65 20 66 	movabs $0x6d6f726620656761,%rax
  402822:	72 6f 6d 
  402825:	48 89 43 28          	mov    %rax,0x28(%rbx)
  402829:	48 b8 20 72 65 73 75 	movabs $0x20746c7573657220,%rax
  402830:	6c 74 20 
  402833:	48 89 43 30          	mov    %rax,0x30(%rbx)
  402837:	c7 43 38 73 65 72 76 	movl   $0x76726573,0x38(%rbx)
  40283e:	66 c7 43 3c 65 72    	movw   $0x7265,0x3c(%rbx)
  402844:	c6 43 3e 00          	movb   $0x0,0x3e(%rbx)
  402848:	89 ef                	mov    %ebp,%edi
  40284a:	e8 41 e4 ff ff       	callq  400c90 <close@plt>
  40284f:	b8 ff ff ff ff       	mov    $0xffffffff,%eax
  402854:	e9 b7 00 00 00       	jmpq   402910 <submitr+0x709>
  402859:	8b 94 24 1c 20 00 00 	mov    0x201c(%rsp),%edx
  402860:	81 fa c8 00 00 00    	cmp    $0xc8,%edx
  402866:	74 28                	je     402890 <submitr+0x689>
  402868:	48 8d 4c 24 10       	lea    0x10(%rsp),%rcx
  40286d:	be e8 34 40 00       	mov    $0x4034e8,%esi
  402872:	48 89 df             	mov    %rbx,%rdi
  402875:	b8 00 00 00 00       	mov    $0x0,%eax
  40287a:	e8 31 e5 ff ff       	callq  400db0 <sprintf@plt>
  40287f:	89 ef                	mov    %ebp,%edi
  402881:	e8 0a e4 ff ff       	callq  400c90 <close@plt>
  402886:	b8 ff ff ff ff       	mov    $0xffffffff,%eax
  40288b:	e9 80 00 00 00       	jmpq   402910 <submitr+0x709>
  402890:	48 8d b4 24 20 60 00 	lea    0x6020(%rsp),%rsi
  402897:	00 
  402898:	48 89 df             	mov    %rbx,%rdi
  40289b:	e8 80 e3 ff ff       	callq  400c20 <strcpy@plt>
  4028a0:	89 ef                	mov    %ebp,%edi
  4028a2:	e8 e9 e3 ff ff       	callq  400c90 <close@plt>
  4028a7:	0f b6 03             	movzbl (%rbx),%eax
  4028aa:	83 e8 4f             	sub    $0x4f,%eax
  4028ad:	75 18                	jne    4028c7 <submitr+0x6c0>
  4028af:	0f b6 53 01          	movzbl 0x1(%rbx),%edx
  4028b3:	83 ea 4b             	sub    $0x4b,%edx
  4028b6:	75 11                	jne    4028c9 <submitr+0x6c2>
  4028b8:	0f b6 53 02          	movzbl 0x2(%rbx),%edx
  4028bc:	83 ea 0a             	sub    $0xa,%edx
  4028bf:	75 08                	jne    4028c9 <submitr+0x6c2>
  4028c1:	0f b6 53 03          	movzbl 0x3(%rbx),%edx
  4028c5:	eb 02                	jmp    4028c9 <submitr+0x6c2>
  4028c7:	89 c2                	mov    %eax,%edx
  4028c9:	85 d2                	test   %edx,%edx
  4028cb:	74 30                	je     4028fd <submitr+0x6f6>
  4028cd:	bf 30 35 40 00       	mov    $0x403530,%edi
  4028d2:	b9 05 00 00 00       	mov    $0x5,%ecx
  4028d7:	48 89 de             	mov    %rbx,%rsi
  4028da:	f3 a6                	repz cmpsb %es:(%rdi),%ds:(%rsi)
  4028dc:	0f 97 c1             	seta   %cl
  4028df:	0f 92 c2             	setb   %dl
  4028e2:	38 d1                	cmp    %dl,%cl
  4028e4:	74 1e                	je     402904 <submitr+0x6fd>
  4028e6:	85 c0                	test   %eax,%eax
  4028e8:	75 0d                	jne    4028f7 <submitr+0x6f0>
  4028ea:	0f b6 43 01          	movzbl 0x1(%rbx),%eax
  4028ee:	83 e8 4b             	sub    $0x4b,%eax
  4028f1:	75 04                	jne    4028f7 <submitr+0x6f0>
  4028f3:	0f b6 43 02          	movzbl 0x2(%rbx),%eax
  4028f7:	85 c0                	test   %eax,%eax
  4028f9:	75 10                	jne    40290b <submitr+0x704>
  4028fb:	eb 13                	jmp    402910 <submitr+0x709>
  4028fd:	b8 00 00 00 00       	mov    $0x0,%eax
  402902:	eb 0c                	jmp    402910 <submitr+0x709>
  402904:	b8 00 00 00 00       	mov    $0x0,%eax
  402909:	eb 05                	jmp    402910 <submitr+0x709>
  40290b:	b8 ff ff ff ff       	mov    $0xffffffff,%eax
  402910:	48 81 c4 48 a0 00 00 	add    $0xa048,%rsp
  402917:	5b                   	pop    %rbx
  402918:	5d                   	pop    %rbp
  402919:	41 5c                	pop    %r12
  40291b:	41 5d                	pop    %r13
  40291d:	41 5e                	pop    %r14
  40291f:	41 5f                	pop    %r15
  402921:	c3                   	retq   

0000000000402922 <init_timeout>:
  402922:	53                   	push   %rbx
  402923:	89 fb                	mov    %edi,%ebx
  402925:	85 ff                	test   %edi,%edi
  402927:	74 1f                	je     402948 <init_timeout+0x26>
  402929:	85 ff                	test   %edi,%edi
  40292b:	79 05                	jns    402932 <init_timeout+0x10>
  40292d:	bb 00 00 00 00       	mov    $0x0,%ebx
  402932:	be a2 1f 40 00       	mov    $0x401fa2,%esi
  402937:	bf 0e 00 00 00       	mov    $0xe,%edi
  40293c:	e8 7f e3 ff ff       	callq  400cc0 <signal@plt>
  402941:	89 df                	mov    %ebx,%edi
  402943:	e8 38 e3 ff ff       	callq  400c80 <alarm@plt>
  402948:	5b                   	pop    %rbx
  402949:	c3                   	retq   

000000000040294a <init_driver>:
  40294a:	55                   	push   %rbp
  40294b:	53                   	push   %rbx
  40294c:	48 83 ec 18          	sub    $0x18,%rsp
  402950:	48 89 fd             	mov    %rdi,%rbp
  402953:	be 01 00 00 00       	mov    $0x1,%esi
  402958:	bf 0d 00 00 00       	mov    $0xd,%edi
  40295d:	e8 5e e3 ff ff       	callq  400cc0 <signal@plt>
  402962:	be 01 00 00 00       	mov    $0x1,%esi
  402967:	bf 1d 00 00 00       	mov    $0x1d,%edi
  40296c:	e8 4f e3 ff ff       	callq  400cc0 <signal@plt>
  402971:	be 01 00 00 00       	mov    $0x1,%esi
  402976:	bf 1d 00 00 00       	mov    $0x1d,%edi
  40297b:	e8 40 e3 ff ff       	callq  400cc0 <signal@plt>
  402980:	ba 00 00 00 00       	mov    $0x0,%edx
  402985:	be 01 00 00 00       	mov    $0x1,%esi
  40298a:	bf 02 00 00 00       	mov    $0x2,%edi
  40298f:	e8 4c e4 ff ff       	callq  400de0 <socket@plt>
  402994:	89 c3                	mov    %eax,%ebx
  402996:	85 c0                	test   %eax,%eax
  402998:	79 4f                	jns    4029e9 <init_driver+0x9f>
  40299a:	48 b8 45 72 72 6f 72 	movabs $0x43203a726f727245,%rax
  4029a1:	3a 20 43 
  4029a4:	48 89 45 00          	mov    %rax,0x0(%rbp)
  4029a8:	48 b8 6c 69 65 6e 74 	movabs $0x6e7520746e65696c,%rax
  4029af:	20 75 6e 
  4029b2:	48 89 45 08          	mov    %rax,0x8(%rbp)
  4029b6:	48 b8 61 62 6c 65 20 	movabs $0x206f7420656c6261,%rax
  4029bd:	74 6f 20 
  4029c0:	48 89 45 10          	mov    %rax,0x10(%rbp)
  4029c4:	48 b8 63 72 65 61 74 	movabs $0x7320657461657263,%rax
  4029cb:	65 20 73 
  4029ce:	48 89 45 18          	mov    %rax,0x18(%rbp)
  4029d2:	c7 45 20 6f 63 6b 65 	movl   $0x656b636f,0x20(%rbp)
  4029d9:	66 c7 45 24 74 00    	movw   $0x74,0x24(%rbp)
  4029df:	b8 ff ff ff ff       	mov    $0xffffffff,%eax
  4029e4:	e9 23 01 00 00       	jmpq   402b0c <init_driver+0x1c2>
  4029e9:	bf 27 30 40 00       	mov    $0x403027,%edi
  4029ee:	e8 dd e2 ff ff       	callq  400cd0 <gethostbyname@plt>
  4029f3:	48 85 c0             	test   %rax,%rax
  4029f6:	75 68                	jne    402a60 <init_driver+0x116>
  4029f8:	48 b8 45 72 72 6f 72 	movabs $0x44203a726f727245,%rax
  4029ff:	3a 20 44 
  402a02:	48 89 45 00          	mov    %rax,0x0(%rbp)
  402a06:	48 b8 4e 53 20 69 73 	movabs $0x6e7520736920534e,%rax
  402a0d:	20 75 6e 
  402a10:	48 89 45 08          	mov    %rax,0x8(%rbp)
  402a14:	48 b8 61 62 6c 65 20 	movabs $0x206f7420656c6261,%rax
  402a1b:	74 6f 20 
  402a1e:	48 89 45 10          	mov    %rax,0x10(%rbp)
  402a22:	48 b8 72 65 73 6f 6c 	movabs $0x2065766c6f736572,%rax
  402a29:	76 65 20 
  402a2c:	48 89 45 18          	mov    %rax,0x18(%rbp)
  402a30:	48 b8 73 65 72 76 65 	movabs $0x6120726576726573,%rax
  402a37:	72 20 61 
  402a3a:	48 89 45 20          	mov    %rax,0x20(%rbp)
  402a3e:	c7 45 28 64 64 72 65 	movl   $0x65726464,0x28(%rbp)
  402a45:	66 c7 45 2c 73 73    	movw   $0x7373,0x2c(%rbp)
  402a4b:	c6 45 2e 00          	movb   $0x0,0x2e(%rbp)
  402a4f:	89 df                	mov    %ebx,%edi
  402a51:	e8 3a e2 ff ff       	callq  400c90 <close@plt>
  402a56:	b8 ff ff ff ff       	mov    $0xffffffff,%eax
  402a5b:	e9 ac 00 00 00       	jmpq   402b0c <init_driver+0x1c2>
  402a60:	48 c7 04 24 00 00 00 	movq   $0x0,(%rsp)
  402a67:	00 
  402a68:	48 c7 44 24 08 00 00 	movq   $0x0,0x8(%rsp)
  402a6f:	00 00 
  402a71:	66 c7 04 24 02 00    	movw   $0x2,(%rsp)
  402a77:	48 8b 48 18          	mov    0x18(%rax),%rcx
  402a7b:	48 63 50 14          	movslq 0x14(%rax),%rdx
  402a7f:	48 8d 74 24 04       	lea    0x4(%rsp),%rsi
  402a84:	48 8b 39             	mov    (%rcx),%rdi
  402a87:	e8 d4 e2 ff ff       	callq  400d60 <bcopy@plt>
  402a8c:	66 c7 44 24 02 3b 6e 	movw   $0x6e3b,0x2(%rsp)
  402a93:	ba 10 00 00 00       	mov    $0x10,%edx
  402a98:	48 89 e6             	mov    %rsp,%rsi
  402a9b:	89 df                	mov    %ebx,%edi
  402a9d:	e8 2e e3 ff ff       	callq  400dd0 <connect@plt>
  402aa2:	85 c0                	test   %eax,%eax
  402aa4:	79 50                	jns    402af6 <init_driver+0x1ac>
  402aa6:	48 b8 45 72 72 6f 72 	movabs $0x55203a726f727245,%rax
  402aad:	3a 20 55 
  402ab0:	48 89 45 00          	mov    %rax,0x0(%rbp)
  402ab4:	48 b8 6e 61 62 6c 65 	movabs $0x6f7420656c62616e,%rax
  402abb:	20 74 6f 
  402abe:	48 89 45 08          	mov    %rax,0x8(%rbp)
  402ac2:	48 b8 20 63 6f 6e 6e 	movabs $0x7463656e6e6f6320,%rax
  402ac9:	65 63 74 
  402acc:	48 89 45 10          	mov    %rax,0x10(%rbp)
  402ad0:	48 b8 20 74 6f 20 73 	movabs $0x76726573206f7420,%rax
  402ad7:	65 72 76 
  402ada:	48 89 45 18          	mov    %rax,0x18(%rbp)
  402ade:	66 c7 45 20 65 72    	movw   $0x7265,0x20(%rbp)
  402ae4:	c6 45 22 00          	movb   $0x0,0x22(%rbp)
  402ae8:	89 df                	mov    %ebx,%edi
  402aea:	e8 a1 e1 ff ff       	callq  400c90 <close@plt>
  402aef:	b8 ff ff ff ff       	mov    $0xffffffff,%eax
  402af4:	eb 16                	jmp    402b0c <init_driver+0x1c2>
  402af6:	89 df                	mov    %ebx,%edi
  402af8:	e8 93 e1 ff ff       	callq  400c90 <close@plt>
  402afd:	66 c7 45 00 4f 4b    	movw   $0x4b4f,0x0(%rbp)
  402b03:	c6 45 02 00          	movb   $0x0,0x2(%rbp)
  402b07:	b8 00 00 00 00       	mov    $0x0,%eax
  402b0c:	48 83 c4 18          	add    $0x18,%rsp
  402b10:	5b                   	pop    %rbx
  402b11:	5d                   	pop    %rbp
  402b12:	c3                   	retq   

0000000000402b13 <driver_post>:
  402b13:	53                   	push   %rbx
  402b14:	48 83 ec 10          	sub    $0x10,%rsp
  402b18:	4c 89 cb             	mov    %r9,%rbx
  402b1b:	45 85 c0             	test   %r8d,%r8d
  402b1e:	74 22                	je     402b42 <driver_post+0x2f>
  402b20:	48 89 ce             	mov    %rcx,%rsi
  402b23:	bf 35 35 40 00       	mov    $0x403535,%edi
  402b28:	b8 00 00 00 00       	mov    $0x0,%eax
  402b2d:	e8 2e e1 ff ff       	callq  400c60 <printf@plt>
  402b32:	66 c7 03 4f 4b       	movw   $0x4b4f,(%rbx)
  402b37:	c6 43 02 00          	movb   $0x0,0x2(%rbx)
  402b3b:	b8 00 00 00 00       	mov    $0x0,%eax
  402b40:	eb 39                	jmp    402b7b <driver_post+0x68>
  402b42:	48 85 ff             	test   %rdi,%rdi
  402b45:	74 26                	je     402b6d <driver_post+0x5a>
  402b47:	80 3f 00             	cmpb   $0x0,(%rdi)
  402b4a:	74 21                	je     402b6d <driver_post+0x5a>
  402b4c:	4c 89 0c 24          	mov    %r9,(%rsp)
  402b50:	49 89 c9             	mov    %rcx,%r9
  402b53:	49 89 d0             	mov    %rdx,%r8
  402b56:	48 89 f9             	mov    %rdi,%rcx
  402b59:	48 89 f2             	mov    %rsi,%rdx
  402b5c:	be 6e 3b 00 00       	mov    $0x3b6e,%esi
  402b61:	bf 27 30 40 00       	mov    $0x403027,%edi
  402b66:	e8 9c f6 ff ff       	callq  402207 <submitr>
  402b6b:	eb 0e                	jmp    402b7b <driver_post+0x68>
  402b6d:	66 c7 03 4f 4b       	movw   $0x4b4f,(%rbx)
  402b72:	c6 43 02 00          	movb   $0x0,0x2(%rbx)
  402b76:	b8 00 00 00 00       	mov    $0x0,%eax
  402b7b:	48 83 c4 10          	add    $0x10,%rsp
  402b7f:	5b                   	pop    %rbx
  402b80:	c3                   	retq   

0000000000402b81 <check>:
  402b81:	89 f8                	mov    %edi,%eax
  402b83:	c1 e8 1c             	shr    $0x1c,%eax
  402b86:	85 c0                	test   %eax,%eax
  402b88:	74 1d                	je     402ba7 <check+0x26>
  402b8a:	b9 00 00 00 00       	mov    $0x0,%ecx
  402b8f:	eb 0b                	jmp    402b9c <check+0x1b>
  402b91:	89 f8                	mov    %edi,%eax
  402b93:	d3 e8                	shr    %cl,%eax
  402b95:	3c 0a                	cmp    $0xa,%al
  402b97:	74 14                	je     402bad <check+0x2c>
  402b99:	83 c1 08             	add    $0x8,%ecx
  402b9c:	83 f9 1f             	cmp    $0x1f,%ecx
  402b9f:	7e f0                	jle    402b91 <check+0x10>
  402ba1:	b8 01 00 00 00       	mov    $0x1,%eax
  402ba6:	c3                   	retq   
  402ba7:	b8 00 00 00 00       	mov    $0x0,%eax
  402bac:	c3                   	retq   
  402bad:	b8 00 00 00 00       	mov    $0x0,%eax
  402bb2:	c3                   	retq   

0000000000402bb3 <gencookie>:
  402bb3:	53                   	push   %rbx
  402bb4:	83 c7 01             	add    $0x1,%edi
  402bb7:	e8 44 e0 ff ff       	callq  400c00 <srandom@plt>
  402bbc:	e8 5f e1 ff ff       	callq  400d20 <random@plt>
  402bc1:	89 c3                	mov    %eax,%ebx
  402bc3:	89 c7                	mov    %eax,%edi
  402bc5:	e8 b7 ff ff ff       	callq  402b81 <check>
  402bca:	85 c0                	test   %eax,%eax
  402bcc:	74 ee                	je     402bbc <gencookie+0x9>
  402bce:	89 d8                	mov    %ebx,%eax
  402bd0:	5b                   	pop    %rbx
  402bd1:	c3                   	retq   
  402bd2:	66 2e 0f 1f 84 00 00 	nopw   %cs:0x0(%rax,%rax,1)
  402bd9:	00 00 00 
  402bdc:	0f 1f 40 00          	nopl   0x0(%rax)

0000000000402be0 <__libc_csu_init>:
  402be0:	41 57                	push   %r15
  402be2:	41 89 ff             	mov    %edi,%r15d
  402be5:	41 56                	push   %r14
  402be7:	49 89 f6             	mov    %rsi,%r14
  402bea:	41 55                	push   %r13
  402bec:	49 89 d5             	mov    %rdx,%r13
  402bef:	41 54                	push   %r12
  402bf1:	4c 8d 25 18 22 20 00 	lea    0x202218(%rip),%r12        # 604e10 <__frame_dummy_init_array_entry>
  402bf8:	55                   	push   %rbp
  402bf9:	48 8d 2d 18 22 20 00 	lea    0x202218(%rip),%rbp        # 604e18 <__init_array_end>
  402c00:	53                   	push   %rbx
  402c01:	4c 29 e5             	sub    %r12,%rbp
  402c04:	31 db                	xor    %ebx,%ebx
  402c06:	48 c1 fd 03          	sar    $0x3,%rbp
  402c0a:	48 83 ec 08          	sub    $0x8,%rsp
  402c0e:	e8 9d df ff ff       	callq  400bb0 <_init>
  402c13:	48 85 ed             	test   %rbp,%rbp
  402c16:	74 1e                	je     402c36 <__libc_csu_init+0x56>
  402c18:	0f 1f 84 00 00 00 00 	nopl   0x0(%rax,%rax,1)
  402c1f:	00 
  402c20:	4c 89 ea             	mov    %r13,%rdx
  402c23:	4c 89 f6             	mov    %r14,%rsi
  402c26:	44 89 ff             	mov    %r15d,%edi
  402c29:	41 ff 14 dc          	callq  *(%r12,%rbx,8)
  402c2d:	48 83 c3 01          	add    $0x1,%rbx
  402c31:	48 39 eb             	cmp    %rbp,%rbx
  402c34:	75 ea                	jne    402c20 <__libc_csu_init+0x40>
  402c36:	48 83 c4 08          	add    $0x8,%rsp
  402c3a:	5b                   	pop    %rbx
  402c3b:	5d                   	pop    %rbp
  402c3c:	41 5c                	pop    %r12
  402c3e:	41 5d                	pop    %r13
  402c40:	41 5e                	pop    %r14
  402c42:	41 5f                	pop    %r15
  402c44:	c3                   	retq   
  402c45:	90                   	nop
  402c46:	66 2e 0f 1f 84 00 00 	nopw   %cs:0x0(%rax,%rax,1)
  402c4d:	00 00 00 

0000000000402c50 <__libc_csu_fini>:
  402c50:	f3 c3                	repz retq 

Disassembly of section .fini:

0000000000402c54 <_fini>:
  402c54:	48 83 ec 08          	sub    $0x8,%rsp
  402c58:	48 83 c4 08          	add    $0x8,%rsp
  402c5c:	c3                   	retq   
